---
triple:          'arm64-apple-darwin'
binary-path:     '/Users/zhaoruicheng/Documents/Programmer/MatrixCalculator Template/MatrixCalculator'
relocations:
  - { offsetInCU: 0x77B4, offset: 0x77B4, size: 0x8, addend: 0x0, symName: __ZNSt3__17advanceB8ue170006IPdllvEEvRT_T0_, symObjAddr: 0x9C50, symBinAddr: 0x10000E000, symSize: 0x38 }
  - { offsetInCU: 0x7C79, offset: 0x7C79, size: 0x8, addend: 0x0, symName: __ZNSt3__17advanceB8ue170006IPNS_6vectorIdNS_9allocatorIdEEEEllvEEvRT_T0_, symObjAddr: 0xBDE8, symBinAddr: 0x100010198, symSize: 0x38 }
  - { offsetInCU: 0x9AE1, offset: 0x9AE1, size: 0x8, addend: 0x0, symName: __ZNSt3__124__put_character_sequenceB8ue170006IcNS_11char_traitsIcEEEERNS_13basic_ostreamIT_T0_EES7_PKS4_m, symObjAddr: 0xE62C, symBinAddr: 0x1000129DC, symSize: 0x1F4 }
  - { offsetInCU: 0xA94A, offset: 0xA94A, size: 0x8, addend: 0x0, symName: __ZNSt3__17advanceB8ue170006IP4fracllvEEvRT_T0_, symObjAddr: 0x10C1C, symBinAddr: 0x100014FCC, symSize: 0x38 }
  - { offsetInCU: 0xADD6, offset: 0xADD6, size: 0x8, addend: 0x0, symName: __ZNSt3__17advanceB8ue170006IPNS_6vectorI4fracNS_9allocatorIS2_EEEEllvEEvRT_T0_, symObjAddr: 0x129B4, symBinAddr: 0x100016D64, symSize: 0x38 }
  - { offsetInCU: 0xC568, offset: 0xC568, size: 0x8, addend: 0x0, symName: __ZNSt3__14swapB8ue170006IxEEvRT_S2_, symObjAddr: 0x198, symBinAddr: 0x100004548, symSize: 0x3C }
  - { offsetInCU: 0xC5B9, offset: 0xC5B9, size: 0x8, addend: 0x0, symName: __ZNSt3__19make_pairB8ue170006IR6matrixIdES3_EENS_4pairINS_18__unwrap_ref_decayIT_E4typeENS5_IT0_E4typeEEEOS6_OS9_, symObjAddr: 0xFD8, symBinAddr: 0x100005388, symSize: 0x40 }
  - { offsetInCU: 0xC6C0, offset: 0xC6C0, size: 0x8, addend: 0x0, symName: __ZNSt3__1lsB8ue170006INS_11char_traitsIcEEEERNS_13basic_ostreamIcT_EES6_PKc, symObjAddr: 0x33C0, symBinAddr: 0x100007770, symSize: 0x48 }
  - { offsetInCU: 0xC706, offset: 0xC706, size: 0x8, addend: 0x0, symName: __ZNSt3__14endlB8ue170006IcNS_11char_traitsIcEEEERNS_13basic_ostreamIT_T0_EES7_, symObjAddr: 0x3434, symBinAddr: 0x1000077E4, symSize: 0x58 }
  - { offsetInCU: 0xC746, offset: 0xC746, size: 0x8, addend: 0x0, symName: __ZNSt3__17getlineB8ue170006IcNS_11char_traitsIcEENS_9allocatorIcEEEERNS_13basic_istreamIT_T0_EES9_RNS_12basic_stringIS6_S7_T1_EE, symObjAddr: 0x34B8, symBinAddr: 0x100007868, symSize: 0x5C }
  - { offsetInCU: 0xC79E, offset: 0xC79E, size: 0x8, addend: 0x0, symName: __ZNSt3__1eqB8ue170006IcNS_11char_traitsIcEENS_9allocatorIcEEEEbRKNS_12basic_stringIT_T0_T1_EEPKS6_, symObjAddr: 0x3514, symBinAddr: 0x1000078C4, symSize: 0xC0 }
  - { offsetInCU: 0xC805, offset: 0xC805, size: 0x8, addend: 0x0, symName: __ZNSt3__112__to_addressB8ue170006INS_6vectorIdNS_9allocatorIdEEEEEEPT_S6_, symObjAddr: 0x6534, symBinAddr: 0x10000A8E4, symSize: 0x14 }
  - { offsetInCU: 0xC83A, offset: 0xC83A, size: 0x8, addend: 0x0, symName: __ZNSt3__130__libcpp_is_constant_evaluatedB8ue170006Ev, symObjAddr: 0x6654, symBinAddr: 0x10000AA04, symSize: 0xC }
  - { offsetInCU: 0xC857, offset: 0xC857, size: 0x8, addend: 0x0, symName: __ZNSt3__119__libcpp_deallocateB8ue170006EPvmm, symObjAddr: 0x6660, symBinAddr: 0x10000AA10, symSize: 0x30 }
  - { offsetInCU: 0xC89F, offset: 0xC89F, size: 0x8, addend: 0x0, symName: __ZNSt3__127__do_deallocate_handle_sizeB8ue170006IJEEEvPvmDpT_, symObjAddr: 0x6690, symBinAddr: 0x10000AA40, symSize: 0x28 }
  - { offsetInCU: 0xC8DD, offset: 0xC8DD, size: 0x8, addend: 0x0, symName: __ZNSt3__124__libcpp_operator_deleteB8ue170006IJPvEEEvDpT_, symObjAddr: 0x66B8, symBinAddr: 0x10000AA68, symSize: 0x24 }
  - { offsetInCU: 0xC912, offset: 0xC912, size: 0x8, addend: 0x0, symName: __ZNSt3__112__to_addressB8ue170006INS_6vectorI4fracNS_9allocatorIS2_EEEEEEPT_S7_, symObjAddr: 0x6BBC, symBinAddr: 0x10000AF6C, symSize: 0x14 }
  - { offsetInCU: 0xC947, offset: 0xC947, size: 0x8, addend: 0x0, symName: __ZNSt3__112__to_addressB8ue170006I4fracEEPT_S3_, symObjAddr: 0x6F8C, symBinAddr: 0x10000B33C, symSize: 0x14 }
  - { offsetInCU: 0xC97C, offset: 0xC97C, size: 0x8, addend: 0x0, symName: __ZNSt3__117__libcpp_allocateB8ue170006Emm, symObjAddr: 0x78B0, symBinAddr: 0x10000BC60, symSize: 0x28 }
  - { offsetInCU: 0xC9B9, offset: 0xC9B9, size: 0x8, addend: 0x0, symName: __ZNSt3__121__libcpp_operator_newB8ue170006IJmEEEPvDpT_, symObjAddr: 0x78EC, symBinAddr: 0x10000BC9C, symSize: 0x24 }
  - { offsetInCU: 0xC9F2, offset: 0xC9F2, size: 0x8, addend: 0x0, symName: __ZNSt3__13minB8ue170006ImEERKT_S3_S3_, symObjAddr: 0x797C, symBinAddr: 0x10000BD2C, symSize: 0x2C }
  - { offsetInCU: 0xCA35, offset: 0xCA35, size: 0x8, addend: 0x0, symName: __ZNSt3__13minB8ue170006ImNS_6__lessIvvEEEERKT_S5_S5_T0_, symObjAddr: 0x7B1C, symBinAddr: 0x10000BECC, symSize: 0x54 }
  - { offsetInCU: 0xCB05, offset: 0xCB05, size: 0x8, addend: 0x0, symName: __ZNSt3__122__make_exception_guardB8ue170006INS_6vectorIdNS_9allocatorIdEEE16__destroy_vectorEEENS_28__exception_guard_exceptionsIT_EES7_, symObjAddr: 0x7D08, symBinAddr: 0x10000C0B8, symSize: 0x40 }
  - { offsetInCU: 0xCB3A, offset: 0xCB3A, size: 0x8, addend: 0x0, symName: __ZNSt3__119__allocate_at_leastB8ue170006INS_9allocatorIdEEEENS_19__allocation_resultINS_16allocator_traitsIT_E7pointerEEERS5_m, symObjAddr: 0x8118, symBinAddr: 0x10000C4C8, symSize: 0x40 }
  - { offsetInCU: 0xCD7E, offset: 0xCD7E, size: 0x8, addend: 0x0, symName: __ZNSt3__120__throw_length_errorB8ue170006EPKc, symObjAddr: 0x8308, symBinAddr: 0x10000C6B8, symSize: 0x64 }
  - { offsetInCU: 0xCDA8, offset: 0xCDA8, size: 0x8, addend: 0x0, symName: __ZNSt3__112__to_addressB8ue170006IdEEPT_S2_, symObjAddr: 0x8568, symBinAddr: 0x10000C918, symSize: 0x14 }
  - { offsetInCU: 0xCDDD, offset: 0xCDDD, size: 0x8, addend: 0x0, symName: __ZNSt3__16fill_nB8ue170006IPdmdEET_S2_T0_RKT1_, symObjAddr: 0x90D8, symBinAddr: 0x10000D488, symSize: 0x44 }
  - { offsetInCU: 0xCE40, offset: 0xCE40, size: 0x8, addend: 0x0, symName: __ZNSt3__18__fill_nB8ue170006IPdmdEET_S2_T0_RKT1_, symObjAddr: 0x92B0, symBinAddr: 0x10000D660, symSize: 0x64 }
  - { offsetInCU: 0xCEA3, offset: 0xCEA3, size: 0x8, addend: 0x0, symName: __ZNSt3__121__convert_to_integralB8ue170006Em, symObjAddr: 0x9314, symBinAddr: 0x10000D6C4, symSize: 0x14 }
  - { offsetInCU: 0xCECF, offset: 0xCECF, size: 0x8, addend: 0x0, symName: __ZNSt3__13maxB8ue170006ImEERKT_S3_S3_, symObjAddr: 0x9420, symBinAddr: 0x10000D7D0, symSize: 0x2C }
  - { offsetInCU: 0xCF12, offset: 0xCF12, size: 0x8, addend: 0x0, symName: __ZNSt3__13maxB8ue170006ImNS_6__lessIvvEEEERKT_S5_S5_T0_, symObjAddr: 0x944C, symBinAddr: 0x10000D7FC, symSize: 0x54 }
  - { offsetInCU: 0xCF6C, offset: 0xCF6C, size: 0x8, addend: 0x0, symName: __ZNSt3__16fill_nB8ue170006IPNS_6vectorIdNS_9allocatorIdEEEEmS4_EET_S6_T0_RKT1_, symObjAddr: 0x94A0, symBinAddr: 0x10000D850, symSize: 0x44 }
  - { offsetInCU: 0xCFCF, offset: 0xCFCF, size: 0x8, addend: 0x0, symName: __ZNSt3__18__fill_nB8ue170006IPNS_6vectorIdNS_9allocatorIdEEEEmS4_EET_S6_T0_RKT1_, symObjAddr: 0x9804, symBinAddr: 0x10000DBB4, symSize: 0x6C }
  - { offsetInCU: 0xD032, offset: 0xD032, size: 0x8, addend: 0x0, symName: __ZNSt3__18distanceB8ue170006IPdEENS_15iterator_traitsIT_E15difference_typeES3_S3_, symObjAddr: 0x9AD8, symBinAddr: 0x10000DE88, symSize: 0x2C }
  - { offsetInCU: 0xD075, offset: 0xD075, size: 0x8, addend: 0x0, symName: __ZNSt3__14nextB8ue170006IPdEENS_9enable_ifIXsr29__has_input_iterator_categoryIT_EE5valueES3_E4typeES3_NS_15iterator_traitsIS3_E15difference_typeE, symObjAddr: 0x9B04, symBinAddr: 0x10000DEB4, symSize: 0x34 }
  - { offsetInCU: 0xD0B8, offset: 0xD0B8, size: 0x8, addend: 0x0, symName: __ZNSt3__14copyB8ue170006IPdS1_EET0_T_S3_S2_, symObjAddr: 0x9B38, symBinAddr: 0x10000DEE8, symSize: 0x40 }
  - { offsetInCU: 0xD112, offset: 0xD112, size: 0x8, addend: 0x0, symName: __ZNSt3__16__copyB8ue170006INS_17_ClassicAlgPolicyEPdS2_S2_EENS_4pairIT0_T2_EES4_T1_S5_, symObjAddr: 0x9C0C, symBinAddr: 0x10000DFBC, symSize: 0x44 }
  - { offsetInCU: 0xD17E, offset: 0xD17E, size: 0x8, addend: 0x0, symName: __ZNSt3__121__convert_to_integralB8ue170006El, symObjAddr: 0x9C88, symBinAddr: 0x10000E038, symSize: 0x14 }
  - { offsetInCU: 0xD1AA, offset: 0xD1AA, size: 0x8, addend: 0x0, symName: __ZNSt3__19__advanceB8ue170006IPdEEvRT_NS_15iterator_traitsIS2_E15difference_typeENS_26random_access_iterator_tagE, symObjAddr: 0x9C9C, symBinAddr: 0x10000E04C, symSize: 0x28 }
  - { offsetInCU: 0xD1F3, offset: 0xD1F3, size: 0x8, addend: 0x0, symName: __ZNSt3__130__uninitialized_allocator_copyB8ue170006INS_9allocatorIdEEPdS3_S3_EET2_RT_T0_T1_S4_, symObjAddr: 0x9CC4, symBinAddr: 0x10000E074, symSize: 0x80 }
  - { offsetInCU: 0xD290, offset: 0xD290, size: 0x8, addend: 0x0, symName: __ZNSt3__114__unwrap_rangeB8ue170006IPdS1_EENS_4pairIT0_S3_EET_S5_, symObjAddr: 0x9D44, symBinAddr: 0x10000E0F4, symSize: 0x60 }
  - { offsetInCU: 0xD2DC, offset: 0xD2DC, size: 0x8, addend: 0x0, symName: __ZNSt3__135__uninitialized_allocator_copy_implB8ue170006INS_9allocatorIdEEPdS3_S3_EET2_RT_T0_T1_S4_, symObjAddr: 0x9DA4, symBinAddr: 0x10000E154, symSize: 0xFC }
  - { offsetInCU: 0xD37A, offset: 0xD37A, size: 0x8, addend: 0x0, symName: __ZNSt3__113__unwrap_iterB8ue170006IPdNS_18__unwrap_iter_implIS1_Lb1EEELi0EEEDTclsrT0_8__unwrapclsr3stdE7declvalIT_EEEES5_, symObjAddr: 0x9EA0, symBinAddr: 0x10000E250, symSize: 0x24 }
  - { offsetInCU: 0xD3BE, offset: 0xD3BE, size: 0x8, addend: 0x0, symName: __ZNSt3__113__rewrap_iterB8ue170006IPdS1_NS_18__unwrap_iter_implIS1_Lb1EEEEET_S4_T0_, symObjAddr: 0x9EC4, symBinAddr: 0x10000E274, symSize: 0x50 }
  - { offsetInCU: 0xD413, offset: 0xD413, size: 0x8, addend: 0x0, symName: __ZNSt3__19make_pairB8ue170006IPdS1_EENS_4pairINS_18__unwrap_ref_decayIT_E4typeENS3_IT0_E4typeEEEOS4_OS7_, symObjAddr: 0x9F14, symBinAddr: 0x10000E2C4, symSize: 0x38 }
  - { offsetInCU: 0xD50F, offset: 0xD50F, size: 0x8, addend: 0x0, symName: __ZNSt3__122__make_exception_guardB8ue170006INS_29_AllocatorDestroyRangeReverseINS_9allocatorIdEEPdEEEENS_28__exception_guard_exceptionsIT_EES7_, symObjAddr: 0x9FBC, symBinAddr: 0x10000E36C, symSize: 0x4C }
  - { offsetInCU: 0xD545, offset: 0xD545, size: 0x8, addend: 0x0, symName: __ZNSt3__119__allocator_destroyB8ue170006INS_9allocatorIdEENS_16reverse_iteratorIPdEES5_EEvRT_T0_T1_, symObjAddr: 0xA23C, symBinAddr: 0x10000E5EC, symSize: 0x70 }
  - { offsetInCU: 0xD5A8, offset: 0xD5A8, size: 0x8, addend: 0x0, symName: __ZNSt3__1neB8ue170006IPdS1_EEbRKNS_16reverse_iteratorIT_EERKNS2_IT0_EE, symObjAddr: 0xA2E0, symBinAddr: 0x10000E690, symSize: 0x48 }
  - { offsetInCU: 0xD5F4, offset: 0xD5F4, size: 0x8, addend: 0x0, symName: __ZNSt3__112__to_addressB8ue170006INS_16reverse_iteratorIPdEEvEEu7__decayIDTclsr19__to_address_helperIT_EE6__callclsr3stdE7declvalIRKS4_EEEEES6_, symObjAddr: 0xA328, symBinAddr: 0x10000E6D8, symSize: 0x24 }
  - { offsetInCU: 0xD6A6, offset: 0xD6A6, size: 0x8, addend: 0x0, symName: __ZNSt3__123__dispatch_copy_or_moveB8ue170006INS_17_ClassicAlgPolicyENS_11__copy_loopIS1_EENS_14__copy_trivialEPdS5_S5_EENS_4pairIT2_T4_EES7_T3_S8_, symObjAddr: 0xA4B8, symBinAddr: 0x10000E868, symSize: 0x44 }
  - { offsetInCU: 0xD724, offset: 0xD724, size: 0x8, addend: 0x0, symName: __ZNSt3__121__unwrap_and_dispatchB8ue170006INS_10__overloadINS_11__copy_loopINS_17_ClassicAlgPolicyEEENS_14__copy_trivialEEEPdS7_S7_Li0EEENS_4pairIT0_T2_EES9_T1_SA_, symObjAddr: 0xA4FC, symBinAddr: 0x10000E8AC, symSize: 0xB4 }
  - { offsetInCU: 0xD7F8, offset: 0xD7F8, size: 0x8, addend: 0x0, symName: __ZNSt3__114__rewrap_rangeB8ue170006IPdS1_EET_S2_T0_, symObjAddr: 0xA5F8, symBinAddr: 0x10000E9A8, symSize: 0x2C }
  - { offsetInCU: 0xD844, offset: 0xD844, size: 0x8, addend: 0x0, symName: __ZNSt3__119__copy_trivial_implB8ue170006IddEENS_4pairIPT_PT0_EES3_S3_S5_, symObjAddr: 0xA624, symBinAddr: 0x10000E9D4, symSize: 0x80 }
  - { offsetInCU: 0xD8AC, offset: 0xD8AC, size: 0x8, addend: 0x0, symName: __ZNSt3__119__constexpr_memmoveB8ue170006IddLi0EEEPT_S2_PT0_NS_15__element_countE, symObjAddr: 0xA6A4, symBinAddr: 0x10000EA54, symSize: 0xA0 }
  - { offsetInCU: 0xD91A, offset: 0xD91A, size: 0x8, addend: 0x0, symName: __ZNSt3__19make_pairB8ue170006IRPdS1_EENS_4pairINS_18__unwrap_ref_decayIT_E4typeENS4_IT0_E4typeEEEOS5_OS8_, symObjAddr: 0xA744, symBinAddr: 0x10000EAF4, symSize: 0x38 }
  - { offsetInCU: 0xD969, offset: 0xD969, size: 0x8, addend: 0x0, symName: __ZNSt3__110__distanceB8ue170006IPdEENS_15iterator_traitsIT_E15difference_typeES3_S3_NS_26random_access_iterator_tagE, symObjAddr: 0xA77C, symBinAddr: 0x10000EB2C, symSize: 0x28 }
  - { offsetInCU: 0xD9B6, offset: 0xD9B6, size: 0x8, addend: 0x0, symName: __ZNSt3__119__allocate_at_leastB8ue170006INS_9allocatorINS_6vectorIdNS1_IdEEEEEEEENS_19__allocation_resultINS_16allocator_traitsIT_E7pointerEEERS8_m, symObjAddr: 0xAD10, symBinAddr: 0x10000F0C0, symSize: 0x40 }
  - { offsetInCU: 0xD9F9, offset: 0xD9F9, size: 0x8, addend: 0x0, symName: __ZNSt3__122__make_exception_guardB8ue170006INS_6vectorINS1_IdNS_9allocatorIdEEEENS2_IS4_EEE16__destroy_vectorEEENS_28__exception_guard_exceptionsIT_EES9_, symObjAddr: 0xB7BC, symBinAddr: 0x10000FB6C, symSize: 0x40 }
  - { offsetInCU: 0xDA2E, offset: 0xDA2E, size: 0x8, addend: 0x0, symName: __ZNSt3__18distanceB8ue170006IPNS_6vectorIdNS_9allocatorIdEEEEEENS_15iterator_traitsIT_E15difference_typeES7_S7_, symObjAddr: 0xBC70, symBinAddr: 0x100010020, symSize: 0x2C }
  - { offsetInCU: 0xDA71, offset: 0xDA71, size: 0x8, addend: 0x0, symName: __ZNSt3__14nextB8ue170006IPNS_6vectorIdNS_9allocatorIdEEEEEENS_9enable_ifIXsr29__has_input_iterator_categoryIT_EE5valueES7_E4typeES7_NS_15iterator_traitsIS7_E15difference_typeE, symObjAddr: 0xBC9C, symBinAddr: 0x10001004C, symSize: 0x34 }
  - { offsetInCU: 0xDAB4, offset: 0xDAB4, size: 0x8, addend: 0x0, symName: __ZNSt3__14copyB8ue170006IPNS_6vectorIdNS_9allocatorIdEEEES5_EET0_T_S7_S6_, symObjAddr: 0xBCD0, symBinAddr: 0x100010080, symSize: 0x40 }
  - { offsetInCU: 0xDB0E, offset: 0xDB0E, size: 0x8, addend: 0x0, symName: __ZNSt3__16__copyB8ue170006INS_17_ClassicAlgPolicyEPNS_6vectorIdNS_9allocatorIdEEEES6_S6_EENS_4pairIT0_T2_EES8_T1_S9_, symObjAddr: 0xBDA4, symBinAddr: 0x100010154, symSize: 0x44 }
  - { offsetInCU: 0xDB7A, offset: 0xDB7A, size: 0x8, addend: 0x0, symName: __ZNSt3__19__advanceB8ue170006IPNS_6vectorIdNS_9allocatorIdEEEEEEvRT_NS_15iterator_traitsIS6_E15difference_typeENS_26random_access_iterator_tagE, symObjAddr: 0xBE20, symBinAddr: 0x1000101D0, symSize: 0x30 }
  - { offsetInCU: 0xDBC3, offset: 0xDBC3, size: 0x8, addend: 0x0, symName: __ZNSt3__130__uninitialized_allocator_copyB8ue170006INS_9allocatorINS_6vectorIdNS1_IdEEEEEEPS4_S6_S6_EET2_RT_T0_T1_S7_, symObjAddr: 0xBE50, symBinAddr: 0x100010200, symSize: 0x80 }
  - { offsetInCU: 0xDC60, offset: 0xDC60, size: 0x8, addend: 0x0, symName: __ZNSt3__114__unwrap_rangeB8ue170006IPNS_6vectorIdNS_9allocatorIdEEEES5_EENS_4pairIT0_S7_EET_S9_, symObjAddr: 0xBED0, symBinAddr: 0x100010280, symSize: 0x60 }
  - { offsetInCU: 0xDCAC, offset: 0xDCAC, size: 0x8, addend: 0x0, symName: __ZNSt3__135__uninitialized_allocator_copy_implB8ue170006INS_9allocatorINS_6vectorIdNS1_IdEEEEEEPS4_S6_S6_EET2_RT_T0_T1_S7_, symObjAddr: 0xBF30, symBinAddr: 0x1000102E0, symSize: 0xFC }
  - { offsetInCU: 0xDD4A, offset: 0xDD4A, size: 0x8, addend: 0x0, symName: __ZNSt3__113__unwrap_iterB8ue170006IPNS_6vectorIdNS_9allocatorIdEEEENS_18__unwrap_iter_implIS5_Lb1EEELi0EEEDTclsrT0_8__unwrapclsr3stdE7declvalIT_EEEES9_, symObjAddr: 0xC02C, symBinAddr: 0x1000103DC, symSize: 0x24 }
  - { offsetInCU: 0xDD8E, offset: 0xDD8E, size: 0x8, addend: 0x0, symName: __ZNSt3__113__rewrap_iterB8ue170006IPNS_6vectorIdNS_9allocatorIdEEEES5_NS_18__unwrap_iter_implIS5_Lb1EEEEET_S8_T0_, symObjAddr: 0xC050, symBinAddr: 0x100010400, symSize: 0x50 }
  - { offsetInCU: 0xDDE3, offset: 0xDDE3, size: 0x8, addend: 0x0, symName: __ZNSt3__19make_pairB8ue170006IPNS_6vectorIdNS_9allocatorIdEEEES5_EENS_4pairINS_18__unwrap_ref_decayIT_E4typeENS7_IT0_E4typeEEEOS8_OSB_, symObjAddr: 0xC0A0, symBinAddr: 0x100010450, symSize: 0x38 }
  - { offsetInCU: 0xDEDF, offset: 0xDEDF, size: 0x8, addend: 0x0, symName: __ZNSt3__122__make_exception_guardB8ue170006INS_29_AllocatorDestroyRangeReverseINS_9allocatorINS_6vectorIdNS2_IdEEEEEEPS5_EEEENS_28__exception_guard_exceptionsIT_EESA_, symObjAddr: 0xC148, symBinAddr: 0x1000104F8, symSize: 0x4C }
  - { offsetInCU: 0xDF15, offset: 0xDF15, size: 0x8, addend: 0x0, symName: __ZNSt3__119__allocator_destroyB8ue170006INS_9allocatorINS_6vectorIdNS1_IdEEEEEENS_16reverse_iteratorIPS4_EES8_EEvRT_T0_T1_, symObjAddr: 0xC3D0, symBinAddr: 0x100010780, symSize: 0x70 }
  - { offsetInCU: 0xDF78, offset: 0xDF78, size: 0x8, addend: 0x0, symName: __ZNSt3__1neB8ue170006IPNS_6vectorIdNS_9allocatorIdEEEES5_EEbRKNS_16reverse_iteratorIT_EERKNS6_IT0_EE, symObjAddr: 0xC474, symBinAddr: 0x100010824, symSize: 0x48 }
  - { offsetInCU: 0xDFC4, offset: 0xDFC4, size: 0x8, addend: 0x0, symName: __ZNSt3__112__to_addressB8ue170006INS_16reverse_iteratorIPNS_6vectorIdNS_9allocatorIdEEEEEEvEEu7__decayIDTclsr19__to_address_helperIT_EE6__callclsr3stdE7declvalIRKS8_EEEEESA_, symObjAddr: 0xC4BC, symBinAddr: 0x10001086C, symSize: 0x24 }
  - { offsetInCU: 0xE076, offset: 0xE076, size: 0x8, addend: 0x0, symName: __ZNSt3__123__dispatch_copy_or_moveB8ue170006INS_17_ClassicAlgPolicyENS_11__copy_loopIS1_EENS_14__copy_trivialEPNS_6vectorIdNS_9allocatorIdEEEES9_S9_EENS_4pairIT2_T4_EESB_T3_SC_, symObjAddr: 0xC654, symBinAddr: 0x100010A04, symSize: 0x44 }
  - { offsetInCU: 0xE0F4, offset: 0xE0F4, size: 0x8, addend: 0x0, symName: __ZNSt3__121__unwrap_and_dispatchB8ue170006INS_10__overloadINS_11__copy_loopINS_17_ClassicAlgPolicyEEENS_14__copy_trivialEEEPNS_6vectorIdNS_9allocatorIdEEEESB_SB_Li0EEENS_4pairIT0_T2_EESD_T1_SE_, symObjAddr: 0xC698, symBinAddr: 0x100010A48, symSize: 0xB4 }
  - { offsetInCU: 0xE25B, offset: 0xE25B, size: 0x8, addend: 0x0, symName: __ZNSt3__114__rewrap_rangeB8ue170006IPNS_6vectorIdNS_9allocatorIdEEEES5_EET_S6_T0_, symObjAddr: 0xC7D4, symBinAddr: 0x100010B84, symSize: 0x2C }
  - { offsetInCU: 0xE2A7, offset: 0xE2A7, size: 0x8, addend: 0x0, symName: __ZNSt3__110__distanceB8ue170006IPNS_6vectorIdNS_9allocatorIdEEEEEENS_15iterator_traitsIT_E15difference_typeES7_S7_NS_26random_access_iterator_tagE, symObjAddr: 0xC800, symBinAddr: 0x100010BB0, symSize: 0x28 }
  - { offsetInCU: 0xE2F4, offset: 0xE2F4, size: 0x8, addend: 0x0, symName: __ZNSt3__112__to_addressB8ue170006I6matrixI4fracEEEPT_S5_, symObjAddr: 0xCE6C, symBinAddr: 0x10001121C, symSize: 0x14 }
  - { offsetInCU: 0xE329, offset: 0xE329, size: 0x8, addend: 0x0, symName: __ZNSt3__119__allocate_at_leastB8ue170006INS_9allocatorI6matrixI4fracEEEEENS_19__allocation_resultINS_16allocator_traitsIT_E7pointerEEERS8_m, symObjAddr: 0xD9C0, symBinAddr: 0x100011D70, symSize: 0x40 }
  - { offsetInCU: 0xE36C, offset: 0xE36C, size: 0x8, addend: 0x0, symName: __ZNSt3__142__uninitialized_allocator_move_if_noexceptB8ue170006INS_9allocatorI6matrixI4fracEEENS_16reverse_iteratorIPS4_EES8_S8_EET2_RT_T0_T1_S9_, symObjAddr: 0xDBA0, symBinAddr: 0x100011F50, symSize: 0x134 }
  - { offsetInCU: 0xE40C, offset: 0xE40C, size: 0x8, addend: 0x0, symName: __ZNSt3__14swapB8ue170006IP6matrixI4fracEEEvRT_S6_, symObjAddr: 0xDD20, symBinAddr: 0x1000120D0, symSize: 0x3C }
  - { offsetInCU: 0xE45D, offset: 0xE45D, size: 0x8, addend: 0x0, symName: __ZNSt3__122__make_exception_guardB8ue170006INS_29_AllocatorDestroyRangeReverseINS_9allocatorI6matrixI4fracEEENS_16reverse_iteratorIPS5_EEEEEENS_28__exception_guard_exceptionsIT_EESC_, symObjAddr: 0xDE08, symBinAddr: 0x1000121B8, symSize: 0x4C }
  - { offsetInCU: 0xE493, offset: 0xE493, size: 0x8, addend: 0x0, symName: __ZNSt3__1neB8ue170006IP6matrixI4fracES4_EEbRKNS_16reverse_iteratorIT_EERKNS5_IT0_EE, symObjAddr: 0xDE98, symBinAddr: 0x100012248, symSize: 0x48 }
  - { offsetInCU: 0xE4DF, offset: 0xE4DF, size: 0x8, addend: 0x0, symName: __ZNSt3__112__to_addressB8ue170006INS_16reverse_iteratorIP6matrixI4fracEEEvEEu7__decayIDTclsr19__to_address_helperIT_EE6__callclsr3stdE7declvalIRKS7_EEEEES9_, symObjAddr: 0xDEE0, symBinAddr: 0x100012290, symSize: 0x24 }
  - { offsetInCU: 0xE53E, offset: 0xE53E, size: 0x8, addend: 0x0, symName: __ZNSt3__119__allocator_destroyB8ue170006INS_9allocatorI6matrixI4fracEEENS_16reverse_iteratorINS6_IPS4_EEEES9_EEvRT_T0_T1_, symObjAddr: 0xE19C, symBinAddr: 0x10001254C, symSize: 0x70 }
  - { offsetInCU: 0xE5A3, offset: 0xE5A3, size: 0x8, addend: 0x0, symName: __ZNSt3__1neB8ue170006INS_16reverse_iteratorIP6matrixI4fracEEES6_EEbRKNS1_IT_EERKNS1_IT0_EE, symObjAddr: 0xE248, symBinAddr: 0x1000125F8, symSize: 0x60 }
  - { offsetInCU: 0xE5EF, offset: 0xE5EF, size: 0x8, addend: 0x0, symName: __ZNSt3__112__to_addressB8ue170006INS_16reverse_iteratorINS1_IP6matrixI4fracEEEEEvEEu7__decayIDTclsr19__to_address_helperIT_EE6__callclsr3stdE7declvalIRKS8_EEEEESA_, symObjAddr: 0xE2A8, symBinAddr: 0x100012658, symSize: 0x24 }
  - { offsetInCU: 0xE64E, offset: 0xE64E, size: 0x8, addend: 0x0, symName: __ZNSt3__116__pad_and_outputB8ue170006IcNS_11char_traitsIcEEEENS_19ostreambuf_iteratorIT_T0_EES6_PKS4_S8_S8_RNS_8ios_baseES4_, symObjAddr: 0xE884, symBinAddr: 0x100012C34, symSize: 0x248 }
  - { offsetInCU: 0xE71D, offset: 0xE71D, size: 0x8, addend: 0x0, symName: __ZNSt3__112__to_addressB8ue170006IKcEEPT_S3_, symObjAddr: 0xECFC, symBinAddr: 0x1000130AC, symSize: 0x14 }
  - { offsetInCU: 0xE785, offset: 0xE785, size: 0x8, addend: 0x0, symName: __ZNSt3__19use_facetB8ue170006INS_5ctypeIcEEEERKT_RKNS_6localeE, symObjAddr: 0xEFD4, symBinAddr: 0x100013384, symSize: 0x2C }
  - { offsetInCU: 0xEB63, offset: 0xEB63, size: 0x8, addend: 0x0, symName: __ZNSt3__118__constexpr_strlenB8ue170006EPKc, symObjAddr: 0xF06C, symBinAddr: 0x10001341C, symSize: 0x24 }
  - { offsetInCU: 0xEB8F, offset: 0xEB8F, size: 0x8, addend: 0x0, symName: __ZNSt3__17getlineB8ue170006IcNS_11char_traitsIcEENS_9allocatorIcEEEERNS_13basic_istreamIT_T0_EES9_RNS_12basic_stringIS6_S7_T1_EES6_, symObjAddr: 0xF090, symBinAddr: 0x100013440, symSize: 0x238 }
  - { offsetInCU: 0xF40D, offset: 0xF40D, size: 0x8, addend: 0x0, symName: __ZNSt3__16fill_nB8ue170006IP4fracmS1_EET_S3_T0_RKT1_, symObjAddr: 0xFB28, symBinAddr: 0x100013ED8, symSize: 0x44 }
  - { offsetInCU: 0xF470, offset: 0xF470, size: 0x8, addend: 0x0, symName: __ZNSt3__18__fill_nB8ue170006IP4fracmS1_EET_S3_T0_RKT1_, symObjAddr: 0xFE84, symBinAddr: 0x100014234, symSize: 0x64 }
  - { offsetInCU: 0xF4D3, offset: 0xF4D3, size: 0x8, addend: 0x0, symName: __ZNSt3__119__allocate_at_leastB8ue170006INS_9allocatorI4fracEEEENS_19__allocation_resultINS_16allocator_traitsIT_E7pointerEEERS6_m, symObjAddr: 0x10264, symBinAddr: 0x100014614, symSize: 0x40 }
  - { offsetInCU: 0xF516, offset: 0xF516, size: 0x8, addend: 0x0, symName: __ZNSt3__16fill_nB8ue170006IPNS_6vectorI4fracNS_9allocatorIS2_EEEEmS5_EET_S7_T0_RKT1_, symObjAddr: 0x1046C, symBinAddr: 0x10001481C, symSize: 0x44 }
  - { offsetInCU: 0xF579, offset: 0xF579, size: 0x8, addend: 0x0, symName: __ZNSt3__18__fill_nB8ue170006IPNS_6vectorI4fracNS_9allocatorIS2_EEEEmS5_EET_S7_T0_RKT1_, symObjAddr: 0x107D0, symBinAddr: 0x100014B80, symSize: 0x6C }
  - { offsetInCU: 0xF5DC, offset: 0xF5DC, size: 0x8, addend: 0x0, symName: __ZNSt3__18distanceB8ue170006IP4fracEENS_15iterator_traitsIT_E15difference_typeES4_S4_, symObjAddr: 0x10AA4, symBinAddr: 0x100014E54, symSize: 0x2C }
  - { offsetInCU: 0xF61F, offset: 0xF61F, size: 0x8, addend: 0x0, symName: __ZNSt3__14nextB8ue170006IP4fracEENS_9enable_ifIXsr29__has_input_iterator_categoryIT_EE5valueES4_E4typeES4_NS_15iterator_traitsIS4_E15difference_typeE, symObjAddr: 0x10AD0, symBinAddr: 0x100014E80, symSize: 0x34 }
  - { offsetInCU: 0xF662, offset: 0xF662, size: 0x8, addend: 0x0, symName: __ZNSt3__14copyB8ue170006IP4fracS2_EET0_T_S4_S3_, symObjAddr: 0x10B04, symBinAddr: 0x100014EB4, symSize: 0x40 }
  - { offsetInCU: 0xF6BC, offset: 0xF6BC, size: 0x8, addend: 0x0, symName: __ZNSt3__16__copyB8ue170006INS_17_ClassicAlgPolicyEP4fracS3_S3_EENS_4pairIT0_T2_EES5_T1_S6_, symObjAddr: 0x10BD8, symBinAddr: 0x100014F88, symSize: 0x44 }
  - { offsetInCU: 0xF728, offset: 0xF728, size: 0x8, addend: 0x0, symName: __ZNSt3__19__advanceB8ue170006IP4fracEEvRT_NS_15iterator_traitsIS3_E15difference_typeENS_26random_access_iterator_tagE, symObjAddr: 0x10C54, symBinAddr: 0x100015004, symSize: 0x28 }
  - { offsetInCU: 0xF771, offset: 0xF771, size: 0x8, addend: 0x0, symName: __ZNSt3__130__uninitialized_allocator_copyB8ue170006INS_9allocatorI4fracEEPS2_S4_S4_EET2_RT_T0_T1_S5_, symObjAddr: 0x10C7C, symBinAddr: 0x10001502C, symSize: 0x80 }
  - { offsetInCU: 0xF80E, offset: 0xF80E, size: 0x8, addend: 0x0, symName: __ZNSt3__114__unwrap_rangeB8ue170006IP4fracS2_EENS_4pairIT0_S4_EET_S6_, symObjAddr: 0x10CFC, symBinAddr: 0x1000150AC, symSize: 0x60 }
  - { offsetInCU: 0xF85A, offset: 0xF85A, size: 0x8, addend: 0x0, symName: __ZNSt3__135__uninitialized_allocator_copy_implB8ue170006INS_9allocatorI4fracEEPS2_S4_S4_EET2_RT_T0_T1_S5_, symObjAddr: 0x10D5C, symBinAddr: 0x10001510C, symSize: 0xFC }
  - { offsetInCU: 0xF8F8, offset: 0xF8F8, size: 0x8, addend: 0x0, symName: __ZNSt3__113__unwrap_iterB8ue170006IP4fracNS_18__unwrap_iter_implIS2_Lb1EEELi0EEEDTclsrT0_8__unwrapclsr3stdE7declvalIT_EEEES6_, symObjAddr: 0x10E58, symBinAddr: 0x100015208, symSize: 0x24 }
  - { offsetInCU: 0xF93C, offset: 0xF93C, size: 0x8, addend: 0x0, symName: __ZNSt3__113__rewrap_iterB8ue170006IP4fracS2_NS_18__unwrap_iter_implIS2_Lb1EEEEET_S5_T0_, symObjAddr: 0x10E7C, symBinAddr: 0x10001522C, symSize: 0x50 }
  - { offsetInCU: 0xF991, offset: 0xF991, size: 0x8, addend: 0x0, symName: __ZNSt3__19make_pairB8ue170006IP4fracS2_EENS_4pairINS_18__unwrap_ref_decayIT_E4typeENS4_IT0_E4typeEEEOS5_OS8_, symObjAddr: 0x10ECC, symBinAddr: 0x10001527C, symSize: 0x38 }
  - { offsetInCU: 0xFA8D, offset: 0xFA8D, size: 0x8, addend: 0x0, symName: __ZNSt3__122__make_exception_guardB8ue170006INS_29_AllocatorDestroyRangeReverseINS_9allocatorI4fracEEPS3_EEEENS_28__exception_guard_exceptionsIT_EES8_, symObjAddr: 0x10F74, symBinAddr: 0x100015324, symSize: 0x4C }
  - { offsetInCU: 0xFAC3, offset: 0xFAC3, size: 0x8, addend: 0x0, symName: __ZNSt3__119__allocator_destroyB8ue170006INS_9allocatorI4fracEENS_16reverse_iteratorIPS2_EES6_EEvRT_T0_T1_, symObjAddr: 0x111FC, symBinAddr: 0x1000155AC, symSize: 0x70 }
  - { offsetInCU: 0xFB26, offset: 0xFB26, size: 0x8, addend: 0x0, symName: __ZNSt3__1neB8ue170006IP4fracS2_EEbRKNS_16reverse_iteratorIT_EERKNS3_IT0_EE, symObjAddr: 0x112A0, symBinAddr: 0x100015650, symSize: 0x48 }
  - { offsetInCU: 0xFB72, offset: 0xFB72, size: 0x8, addend: 0x0, symName: __ZNSt3__112__to_addressB8ue170006INS_16reverse_iteratorIP4fracEEvEEu7__decayIDTclsr19__to_address_helperIT_EE6__callclsr3stdE7declvalIRKS5_EEEEES7_, symObjAddr: 0x112E8, symBinAddr: 0x100015698, symSize: 0x24 }
  - { offsetInCU: 0xFC24, offset: 0xFC24, size: 0x8, addend: 0x0, symName: __ZNSt3__123__dispatch_copy_or_moveB8ue170006INS_17_ClassicAlgPolicyENS_11__copy_loopIS1_EENS_14__copy_trivialEP4fracS6_S6_EENS_4pairIT2_T4_EES8_T3_S9_, symObjAddr: 0x11478, symBinAddr: 0x100015828, symSize: 0x44 }
  - { offsetInCU: 0xFCA2, offset: 0xFCA2, size: 0x8, addend: 0x0, symName: __ZNSt3__121__unwrap_and_dispatchB8ue170006INS_10__overloadINS_11__copy_loopINS_17_ClassicAlgPolicyEEENS_14__copy_trivialEEEP4fracS8_S8_Li0EEENS_4pairIT0_T2_EESA_T1_SB_, symObjAddr: 0x114BC, symBinAddr: 0x10001586C, symSize: 0xB4 }
  - { offsetInCU: 0xFD30, offset: 0xFD30, size: 0x8, addend: 0x0, symName: __ZNSt3__114__rewrap_rangeB8ue170006IP4fracS2_EET_S3_T0_, symObjAddr: 0x115FC, symBinAddr: 0x1000159AC, symSize: 0x2C }
  - { offsetInCU: 0xFD7C, offset: 0xFD7C, size: 0x8, addend: 0x0, symName: __ZNSt3__110__distanceB8ue170006IP4fracEENS_15iterator_traitsIT_E15difference_typeES4_S4_NS_26random_access_iterator_tagE, symObjAddr: 0x11628, symBinAddr: 0x1000159D8, symSize: 0x28 }
  - { offsetInCU: 0xFDC9, offset: 0xFDC9, size: 0x8, addend: 0x0, symName: __ZNSt3__122__make_exception_guardB8ue170006INS_6vectorI4fracNS_9allocatorIS2_EEE16__destroy_vectorEEENS_28__exception_guard_exceptionsIT_EES8_, symObjAddr: 0x11998, symBinAddr: 0x100015D48, symSize: 0x40 }
  - { offsetInCU: 0xFDFE, offset: 0xFDFE, size: 0x8, addend: 0x0, symName: __ZNSt3__119__allocate_at_leastB8ue170006INS_9allocatorINS_6vectorI4fracNS1_IS3_EEEEEEEENS_19__allocation_resultINS_16allocator_traitsIT_E7pointerEEERS9_m, symObjAddr: 0x11CE4, symBinAddr: 0x100016094, symSize: 0x40 }
  - { offsetInCU: 0xFE41, offset: 0xFE41, size: 0x8, addend: 0x0, symName: __ZNSt3__1rsB8ue170006IcNS_11char_traitsIcEENS_9allocatorIcEEEERNS_13basic_istreamIT_T0_EES9_RNS_12basic_stringIS6_S7_T1_EE, symObjAddr: 0x12130, symBinAddr: 0x1000164E0, symSize: 0x310 }
  - { offsetInCU: 0xFF0E, offset: 0xFF0E, size: 0x8, addend: 0x0, symName: __ZNSt3__18distanceB8ue170006IPNS_6vectorI4fracNS_9allocatorIS2_EEEEEENS_15iterator_traitsIT_E15difference_typeES8_S8_, symObjAddr: 0x1283C, symBinAddr: 0x100016BEC, symSize: 0x2C }
  - { offsetInCU: 0xFF51, offset: 0xFF51, size: 0x8, addend: 0x0, symName: __ZNSt3__14nextB8ue170006IPNS_6vectorI4fracNS_9allocatorIS2_EEEEEENS_9enable_ifIXsr29__has_input_iterator_categoryIT_EE5valueES8_E4typeES8_NS_15iterator_traitsIS8_E15difference_typeE, symObjAddr: 0x12868, symBinAddr: 0x100016C18, symSize: 0x34 }
  - { offsetInCU: 0xFF94, offset: 0xFF94, size: 0x8, addend: 0x0, symName: __ZNSt3__14copyB8ue170006IPNS_6vectorI4fracNS_9allocatorIS2_EEEES6_EET0_T_S8_S7_, symObjAddr: 0x1289C, symBinAddr: 0x100016C4C, symSize: 0x40 }
  - { offsetInCU: 0xFFEE, offset: 0xFFEE, size: 0x8, addend: 0x0, symName: __ZNSt3__16__copyB8ue170006INS_17_ClassicAlgPolicyEPNS_6vectorI4fracNS_9allocatorIS3_EEEES7_S7_EENS_4pairIT0_T2_EES9_T1_SA_, symObjAddr: 0x12970, symBinAddr: 0x100016D20, symSize: 0x44 }
  - { offsetInCU: 0x1005A, offset: 0x1005A, size: 0x8, addend: 0x0, symName: __ZNSt3__19__advanceB8ue170006IPNS_6vectorI4fracNS_9allocatorIS2_EEEEEEvRT_NS_15iterator_traitsIS7_E15difference_typeENS_26random_access_iterator_tagE, symObjAddr: 0x129EC, symBinAddr: 0x100016D9C, symSize: 0x30 }
  - { offsetInCU: 0x100A3, offset: 0x100A3, size: 0x8, addend: 0x0, symName: __ZNSt3__130__uninitialized_allocator_copyB8ue170006INS_9allocatorINS_6vectorI4fracNS1_IS3_EEEEEEPS5_S7_S7_EET2_RT_T0_T1_S8_, symObjAddr: 0x12A1C, symBinAddr: 0x100016DCC, symSize: 0x80 }
  - { offsetInCU: 0x10140, offset: 0x10140, size: 0x8, addend: 0x0, symName: __ZNSt3__114__unwrap_rangeB8ue170006IPNS_6vectorI4fracNS_9allocatorIS2_EEEES6_EENS_4pairIT0_S8_EET_SA_, symObjAddr: 0x12A9C, symBinAddr: 0x100016E4C, symSize: 0x60 }
  - { offsetInCU: 0x1018C, offset: 0x1018C, size: 0x8, addend: 0x0, symName: __ZNSt3__135__uninitialized_allocator_copy_implB8ue170006INS_9allocatorINS_6vectorI4fracNS1_IS3_EEEEEEPS5_S7_S7_EET2_RT_T0_T1_S8_, symObjAddr: 0x12AFC, symBinAddr: 0x100016EAC, symSize: 0xFC }
  - { offsetInCU: 0x1022A, offset: 0x1022A, size: 0x8, addend: 0x0, symName: __ZNSt3__113__unwrap_iterB8ue170006IPNS_6vectorI4fracNS_9allocatorIS2_EEEENS_18__unwrap_iter_implIS6_Lb1EEELi0EEEDTclsrT0_8__unwrapclsr3stdE7declvalIT_EEEESA_, symObjAddr: 0x12BF8, symBinAddr: 0x100016FA8, symSize: 0x24 }
  - { offsetInCU: 0x1026E, offset: 0x1026E, size: 0x8, addend: 0x0, symName: __ZNSt3__113__rewrap_iterB8ue170006IPNS_6vectorI4fracNS_9allocatorIS2_EEEES6_NS_18__unwrap_iter_implIS6_Lb1EEEEET_S9_T0_, symObjAddr: 0x12C1C, symBinAddr: 0x100016FCC, symSize: 0x50 }
  - { offsetInCU: 0x102C3, offset: 0x102C3, size: 0x8, addend: 0x0, symName: __ZNSt3__19make_pairB8ue170006IPNS_6vectorI4fracNS_9allocatorIS2_EEEES6_EENS_4pairINS_18__unwrap_ref_decayIT_E4typeENS8_IT0_E4typeEEEOS9_OSC_, symObjAddr: 0x12C6C, symBinAddr: 0x10001701C, symSize: 0x38 }
  - { offsetInCU: 0x103BF, offset: 0x103BF, size: 0x8, addend: 0x0, symName: __ZNSt3__122__make_exception_guardB8ue170006INS_29_AllocatorDestroyRangeReverseINS_9allocatorINS_6vectorI4fracNS2_IS4_EEEEEEPS6_EEEENS_28__exception_guard_exceptionsIT_EESB_, symObjAddr: 0x12D14, symBinAddr: 0x1000170C4, symSize: 0x4C }
  - { offsetInCU: 0x103F5, offset: 0x103F5, size: 0x8, addend: 0x0, symName: __ZNSt3__119__allocator_destroyB8ue170006INS_9allocatorINS_6vectorI4fracNS1_IS3_EEEEEENS_16reverse_iteratorIPS5_EES9_EEvRT_T0_T1_, symObjAddr: 0x12F9C, symBinAddr: 0x10001734C, symSize: 0x70 }
  - { offsetInCU: 0x10458, offset: 0x10458, size: 0x8, addend: 0x0, symName: __ZNSt3__1neB8ue170006IPNS_6vectorI4fracNS_9allocatorIS2_EEEES6_EEbRKNS_16reverse_iteratorIT_EERKNS7_IT0_EE, symObjAddr: 0x13040, symBinAddr: 0x1000173F0, symSize: 0x48 }
  - { offsetInCU: 0x104A4, offset: 0x104A4, size: 0x8, addend: 0x0, symName: __ZNSt3__112__to_addressB8ue170006INS_16reverse_iteratorIPNS_6vectorI4fracNS_9allocatorIS3_EEEEEEvEEu7__decayIDTclsr19__to_address_helperIT_EE6__callclsr3stdE7declvalIRKS9_EEEEESB_, symObjAddr: 0x13088, symBinAddr: 0x100017438, symSize: 0x24 }
  - { offsetInCU: 0x10556, offset: 0x10556, size: 0x8, addend: 0x0, symName: __ZNSt3__123__dispatch_copy_or_moveB8ue170006INS_17_ClassicAlgPolicyENS_11__copy_loopIS1_EENS_14__copy_trivialEPNS_6vectorI4fracNS_9allocatorIS6_EEEESA_SA_EENS_4pairIT2_T4_EESC_T3_SD_, symObjAddr: 0x13220, symBinAddr: 0x1000175D0, symSize: 0x44 }
  - { offsetInCU: 0x105D4, offset: 0x105D4, size: 0x8, addend: 0x0, symName: __ZNSt3__121__unwrap_and_dispatchB8ue170006INS_10__overloadINS_11__copy_loopINS_17_ClassicAlgPolicyEEENS_14__copy_trivialEEEPNS_6vectorI4fracNS_9allocatorIS8_EEEESC_SC_Li0EEENS_4pairIT0_T2_EESE_T1_SF_, symObjAddr: 0x13264, symBinAddr: 0x100017614, symSize: 0xB4 }
  - { offsetInCU: 0x10662, offset: 0x10662, size: 0x8, addend: 0x0, symName: __ZNSt3__114__rewrap_rangeB8ue170006IPNS_6vectorI4fracNS_9allocatorIS2_EEEES6_EET_S7_T0_, symObjAddr: 0x133A0, symBinAddr: 0x100017750, symSize: 0x2C }
  - { offsetInCU: 0x106AE, offset: 0x106AE, size: 0x8, addend: 0x0, symName: __ZNSt3__110__distanceB8ue170006IPNS_6vectorI4fracNS_9allocatorIS2_EEEEEENS_15iterator_traitsIT_E15difference_typeES8_S8_NS_26random_access_iterator_tagE, symObjAddr: 0x133CC, symBinAddr: 0x10001777C, symSize: 0x28 }
  - { offsetInCU: 0x106FB, offset: 0x106FB, size: 0x8, addend: 0x0, symName: __ZNSt3__1lsB8ue170006INS_11char_traitsIcEEEERNS_13basic_ostreamIcT_EES6_c, symObjAddr: 0x1345C, symBinAddr: 0x10001780C, symSize: 0x34 }
  - { offsetInCU: 0x10741, offset: 0x10741, size: 0x8, addend: 0x0, symName: __ZNSt3__14swapB8ue170006I4fracNS_9allocatorIS1_EEEEvRNS_6vectorIT_T0_EES8_, symObjAddr: 0x13698, symBinAddr: 0x100017A48, symSize: 0x2C }
  - { offsetInCU: 0x1078C, offset: 0x1078C, size: 0x8, addend: 0x0, symName: __ZNSt3__14swapB8ue170006IP4fracEEvRT_S4_, symObjAddr: 0x13810, symBinAddr: 0x100017BC0, symSize: 0x3C }
  - { offsetInCU: 0x107DD, offset: 0x107DD, size: 0x8, addend: 0x0, symName: __ZNSt3__116__swap_allocatorB8ue170006INS_9allocatorI4fracEEEEvRT_S5_NS_17integral_constantIbLb0EEE, symObjAddr: 0x1384C, symBinAddr: 0x100017BFC, symSize: 0x14 }
  - { offsetInCU: 0x1081E, offset: 0x1081E, size: 0x8, addend: 0x0, symName: __ZNSt3__13minB8ue170006IiEERKT_S3_S3_, symObjAddr: 0x13AAC, symBinAddr: 0x100017E5C, symSize: 0x2C }
  - { offsetInCU: 0x10861, offset: 0x10861, size: 0x8, addend: 0x0, symName: __ZNSt3__13minB8ue170006IiNS_6__lessIvvEEEERKT_S5_S5_T0_, symObjAddr: 0x13B54, symBinAddr: 0x100017F04, symSize: 0x54 }
  - { offsetInCU: 0x108BB, offset: 0x108BB, size: 0x8, addend: 0x0, symName: __ZNSt3__142__uninitialized_allocator_move_if_noexceptB8ue170006INS_9allocatorI4fracEENS_16reverse_iteratorIPS2_EES6_S6_EET2_RT_T0_T1_S7_, symObjAddr: 0x14274, symBinAddr: 0x100018624, symSize: 0x124 }
  - { offsetInCU: 0x1095B, offset: 0x1095B, size: 0x8, addend: 0x0, symName: __ZNSt3__122__make_exception_guardB8ue170006INS_29_AllocatorDestroyRangeReverseINS_9allocatorI4fracEENS_16reverse_iteratorIPS3_EEEEEENS_28__exception_guard_exceptionsIT_EESA_, symObjAddr: 0x14398, symBinAddr: 0x100018748, symSize: 0x4C }
  - { offsetInCU: 0x10991, offset: 0x10991, size: 0x8, addend: 0x0, symName: __ZNSt3__119__allocator_destroyB8ue170006INS_9allocatorI4fracEENS_16reverse_iteratorINS4_IPS2_EEEES7_EEvRT_T0_T1_, symObjAddr: 0x14608, symBinAddr: 0x1000189B8, symSize: 0x70 }
  - { offsetInCU: 0x109F6, offset: 0x109F6, size: 0x8, addend: 0x0, symName: __ZNSt3__1neB8ue170006INS_16reverse_iteratorIP4fracEES4_EEbRKNS1_IT_EERKNS1_IT0_EE, symObjAddr: 0x146B4, symBinAddr: 0x100018A64, symSize: 0x60 }
  - { offsetInCU: 0x10A42, offset: 0x10A42, size: 0x8, addend: 0x0, symName: __ZNSt3__112__to_addressB8ue170006INS_16reverse_iteratorINS1_IP4fracEEEEvEEu7__decayIDTclsr19__to_address_helperIT_EE6__callclsr3stdE7declvalIRKS6_EEEEES8_, symObjAddr: 0x14714, symBinAddr: 0x100018AC4, symSize: 0x24 }
  - { offsetInCU: 0x10AA1, offset: 0x10AA1, size: 0x8, addend: 0x0, symName: __ZNSt3__122__make_exception_guardB8ue170006INS_6vectorINS1_I4fracNS_9allocatorIS2_EEEENS3_IS5_EEE16__destroy_vectorEEENS_28__exception_guard_exceptionsIT_EESA_, symObjAddr: 0x1518C, symBinAddr: 0x10001953C, symSize: 0x40 }
  - { offsetInCU: 0x10DF5, offset: 0x10DF5, size: 0x8, addend: 0x0, symName: __ZSt28__throw_bad_array_new_lengthB8ue170006v, symObjAddr: 0x787C, symBinAddr: 0x10000BC2C, symSize: 0x34 }
  - { offsetInCU: 0x12053, offset: 0x12053, size: 0x8, addend: 0x0, symName: __ZNSt3__16vectorI6matrixI4fracENS_9allocatorIS3_EEE26__swap_out_circular_bufferERNS_14__split_bufferIS3_RS5_EE, symObjAddr: 0xD64C, symBinAddr: 0x1000119FC, symSize: 0x110 }
  - { offsetInCU: 0x12263, offset: 0x12263, size: 0x8, addend: 0x0, symName: __ZNSt3__16vectorI4fracNS_9allocatorIS1_EEE26__swap_out_circular_bufferERNS_14__split_bufferIS1_RS3_EE, symObjAddr: 0x13F0C, symBinAddr: 0x1000182BC, symSize: 0x110 }
  - { offsetInCU: 0x14630, offset: 0x14630, size: 0x8, addend: 0x0, symName: __Z4readRc, symObjAddr: 0x0, symBinAddr: 0x1000043B0, symSize: 0x108 }
  - { offsetInCU: 0x14678, offset: 0x14678, size: 0x8, addend: 0x0, symName: __Z3gcdxx, symObjAddr: 0x108, symBinAddr: 0x1000044B8, symSize: 0x90 }
  - { offsetInCU: 0x146C0, offset: 0x146C0, size: 0x8, addend: 0x0, symName: __Z4normI4fracEdRKNSt3__16vectorIT_NS1_9allocatorIS3_EEEE, symObjAddr: 0x1D4, symBinAddr: 0x100004584, symSize: 0x3C }
  - { offsetInCU: 0x14706, offset: 0x14706, size: 0x8, addend: 0x0, symName: __ZmlI4fracET_RKNSt3__16vectorIS1_NS2_9allocatorIS1_EEEES8_, symObjAddr: 0x210, symBinAddr: 0x1000045C0, symSize: 0xF4 }
  - { offsetInCU: 0x1478A, offset: 0x1478A, size: 0x8, addend: 0x0, symName: __ZNK4frac4realEv, symObjAddr: 0x304, symBinAddr: 0x1000046B4, symSize: 0x28 }
  - { offsetInCU: 0x147AE, offset: 0x147AE, size: 0x8, addend: 0x0, symName: __Z7unitizeI4fracENSt3__16vectorIdNS1_9allocatorIdEEEERKNS2_IT_NS3_IS6_EEEE, symObjAddr: 0x32C, symBinAddr: 0x1000046DC, symSize: 0x130 }
  - { offsetInCU: 0x14832, offset: 0x14832, size: 0x8, addend: 0x0, symName: __ZNKSt3__16vectorI4fracNS_9allocatorIS1_EEE4sizeB8ue170006Ev, symObjAddr: 0x45C, symBinAddr: 0x10000480C, symSize: 0x28 }
  - { offsetInCU: 0x14857, offset: 0x14857, size: 0x8, addend: 0x0, symName: __ZNSt3__16vectorIdNS_9allocatorIdEEEC1EmRKd, symObjAddr: 0x484, symBinAddr: 0x100004834, symSize: 0x3C }
  - { offsetInCU: 0x148A0, offset: 0x148A0, size: 0x8, addend: 0x0, symName: __ZNKSt3__16vectorI4fracNS_9allocatorIS1_EEEixB8ue170006Em, symObjAddr: 0x4C0, symBinAddr: 0x100004870, symSize: 0x24 }
  - { offsetInCU: 0x148D6, offset: 0x148D6, size: 0x8, addend: 0x0, symName: __ZNSt3__16vectorIdNS_9allocatorIdEEEixB8ue170006Em, symObjAddr: 0x4E4, symBinAddr: 0x100004894, symSize: 0x24 }
  - { offsetInCU: 0x1490C, offset: 0x1490C, size: 0x8, addend: 0x0, symName: __ZNSt3__16vectorIdNS_9allocatorIdEEED1B8ue170006Ev, symObjAddr: 0x508, symBinAddr: 0x1000048B8, symSize: 0x2C }
  - { offsetInCU: 0x14934, offset: 0x14934, size: 0x8, addend: 0x0, symName: __Z11qrDecompose6matrixIdE, symObjAddr: 0x540, symBinAddr: 0x1000048F0, symSize: 0x1F0 }
  - { offsetInCU: 0x149C7, offset: 0x149C7, size: 0x8, addend: 0x0, symName: __ZN6matrixIdEC1ERKS0_, symObjAddr: 0x730, symBinAddr: 0x100004AE0, symSize: 0x34 }
  - { offsetInCU: 0x149FF, offset: 0x149FF, size: 0x8, addend: 0x0, symName: __ZN6matrixIdE7unitizeEv, symObjAddr: 0x764, symBinAddr: 0x100004B14, symSize: 0x580 }
  - { offsetInCU: 0x14B27, offset: 0x14B27, size: 0x8, addend: 0x0, symName: __ZN6matrixIdEaSERKS0_, symObjAddr: 0xCE4, symBinAddr: 0x100005094, symSize: 0x54 }
  - { offsetInCU: 0x14B5B, offset: 0x14B5B, size: 0x8, addend: 0x0, symName: __ZN6matrixIdED1Ev, symObjAddr: 0xD38, symBinAddr: 0x1000050E8, symSize: 0x2C }
  - { offsetInCU: 0x14B87, offset: 0x14B87, size: 0x8, addend: 0x0, symName: __ZN6matrixIdEC1Eii, symObjAddr: 0xD64, symBinAddr: 0x100005114, symSize: 0x3C }
  - { offsetInCU: 0x14BCE, offset: 0x14BCE, size: 0x8, addend: 0x0, symName: __ZNSt3__16vectorINS0_IdNS_9allocatorIdEEEENS1_IS3_EEEixB8ue170006Em, symObjAddr: 0xDA0, symBinAddr: 0x100005150, symSize: 0x2C }
  - { offsetInCU: 0x14C04, offset: 0x14C04, size: 0x8, addend: 0x0, symName: __ZNK6matrixIdEmlERKS0_, symObjAddr: 0xDCC, symBinAddr: 0x10000517C, symSize: 0x20C }
  - { offsetInCU: 0x14CC0, offset: 0x14CC0, size: 0x8, addend: 0x0, symName: __Z3eig6matrixIdEi, symObjAddr: 0x1018, symBinAddr: 0x1000053C8, symSize: 0x200 }
  - { offsetInCU: 0x14D81, offset: 0x14D81, size: 0x8, addend: 0x0, symName: __ZNSt3__14pairI6matrixIdES2_ED1Ev, symObjAddr: 0x1218, symBinAddr: 0x1000055C8, symSize: 0x2C }
  - { offsetInCU: 0x14DAC, offset: 0x14DAC, size: 0x8, addend: 0x0, symName: _main, symObjAddr: 0x1244, symBinAddr: 0x1000055F4, symSize: 0x20B8 }
  - { offsetInCU: 0x15183, offset: 0x15183, size: 0x8, addend: 0x0, symName: __ZNSt3__16vectorI6matrixI4fracENS_9allocatorIS3_EEEC1B8ue170006Ev, symObjAddr: 0x32FC, symBinAddr: 0x1000076AC, symSize: 0x2C }
  - { offsetInCU: 0x151AC, offset: 0x151AC, size: 0x8, addend: 0x0, symName: __ZN6matrixI4fracEC1Ev, symObjAddr: 0x3328, symBinAddr: 0x1000076D8, symSize: 0x2C }
  - { offsetInCU: 0x151D4, offset: 0x151D4, size: 0x8, addend: 0x0, symName: __ZNSt3__16vectorI6matrixI4fracENS_9allocatorIS3_EEE9push_backB8ue170006ERKS3_, symObjAddr: 0x3354, symBinAddr: 0x100007704, symSize: 0x6C }
  - { offsetInCU: 0x1520A, offset: 0x1520A, size: 0x8, addend: 0x0, symName: __ZNSt3__113basic_ostreamIcNS_11char_traitsIcEEElsB8ue170006EPFRS3_S4_E, symObjAddr: 0x3408, symBinAddr: 0x1000077B8, symSize: 0x2C }
  - { offsetInCU: 0x1523D, offset: 0x1523D, size: 0x8, addend: 0x0, symName: __ZNSt3__112basic_stringIcNS_11char_traitsIcEENS_9allocatorIcEEEC1B8ue170006Ev, symObjAddr: 0x348C, symBinAddr: 0x10000783C, symSize: 0x2C }
  - { offsetInCU: 0x15266, offset: 0x15266, size: 0x8, addend: 0x0, symName: __ZN6matrixI4fracE4initEii, symObjAddr: 0x35D4, symBinAddr: 0x100007984, symSize: 0xB4 }
  - { offsetInCU: 0x152C7, offset: 0x152C7, size: 0x8, addend: 0x0, symName: __ZN6matrixI4fracE10readMatrixEii, symObjAddr: 0x3688, symBinAddr: 0x100007A38, symSize: 0xC8 }
  - { offsetInCU: 0x15346, offset: 0x15346, size: 0x8, addend: 0x0, symName: __ZNKSt3__16vectorI6matrixI4fracENS_9allocatorIS3_EEE4sizeB8ue170006Ev, symObjAddr: 0x3750, symBinAddr: 0x100007B00, symSize: 0x28 }
  - { offsetInCU: 0x1536B, offset: 0x1536B, size: 0x8, addend: 0x0, symName: __ZN6matrixI4fracED1Ev, symObjAddr: 0x3778, symBinAddr: 0x100007B28, symSize: 0x2C }
  - { offsetInCU: 0x15397, offset: 0x15397, size: 0x8, addend: 0x0, symName: __ZNSt3__16vectorI6matrixI4fracENS_9allocatorIS3_EEEixB8ue170006Em, symObjAddr: 0x37A4, symBinAddr: 0x100007B54, symSize: 0x24 }
  - { offsetInCU: 0x153CD, offset: 0x153CD, size: 0x8, addend: 0x0, symName: __ZN6matrixI4fracEaSERKS1_, symObjAddr: 0x37C8, symBinAddr: 0x100007B78, symSize: 0x54 }
  - { offsetInCU: 0x15401, offset: 0x15401, size: 0x8, addend: 0x0, symName: __ZN6matrixI4fracE9putMatrixEv, symObjAddr: 0x381C, symBinAddr: 0x100007BCC, symSize: 0x100 }
  - { offsetInCU: 0x15462, offset: 0x15462, size: 0x8, addend: 0x0, symName: __ZNK6matrixI4fracEmlERKS1_, symObjAddr: 0x391C, symBinAddr: 0x100007CCC, symSize: 0x21C }
  - { offsetInCU: 0x15521, offset: 0x15521, size: 0x8, addend: 0x0, symName: __ZN4fracC1Ev, symObjAddr: 0x3B38, symBinAddr: 0x100007EE8, symSize: 0x2C }
  - { offsetInCU: 0x1554A, offset: 0x1554A, size: 0x8, addend: 0x0, symName: __ZN4frac8readFracEv, symObjAddr: 0x3B64, symBinAddr: 0x100007F14, symSize: 0x7C }
  - { offsetInCU: 0x15599, offset: 0x15599, size: 0x8, addend: 0x0, symName: __ZNK6matrixI4fracEmlERKS0_, symObjAddr: 0x3BE0, symBinAddr: 0x100007F90, symSize: 0x16C }
  - { offsetInCU: 0x15610, offset: 0x15610, size: 0x8, addend: 0x0, symName: __ZNK6matrixI4fracEplERKS1_, symObjAddr: 0x3D4C, symBinAddr: 0x1000080FC, symSize: 0x1D4 }
  - { offsetInCU: 0x15690, offset: 0x15690, size: 0x8, addend: 0x0, symName: __ZNK6matrixI4fracEmiERKS1_, symObjAddr: 0x3F20, symBinAddr: 0x1000082D0, symSize: 0x1C8 }
  - { offsetInCU: 0x15710, offset: 0x15710, size: 0x8, addend: 0x0, symName: __ZN6matrixI4fracE10quickPowerEi, symObjAddr: 0x40E8, symBinAddr: 0x100008498, symSize: 0x220 }
  - { offsetInCU: 0x15763, offset: 0x15763, size: 0x8, addend: 0x0, symName: __ZN6matrixI4fracE3detEv, symObjAddr: 0x4308, symBinAddr: 0x1000086B8, symSize: 0x3AC }
  - { offsetInCU: 0x15875, offset: 0x15875, size: 0x8, addend: 0x0, symName: __ZN4frac7putFracEv, symObjAddr: 0x46B4, symBinAddr: 0x100008A64, symSize: 0x80 }
  - { offsetInCU: 0x1589A, offset: 0x1589A, size: 0x8, addend: 0x0, symName: __ZN6matrixI4fracE4copyERKS1_, symObjAddr: 0x4734, symBinAddr: 0x100008AE4, symSize: 0xEC }
  - { offsetInCU: 0x1590A, offset: 0x1590A, size: 0x8, addend: 0x0, symName: __ZN6matrixI4fracE16gaussEliminationEv, symObjAddr: 0x4820, symBinAddr: 0x100008BD0, symSize: 0x454 }
  - { offsetInCU: 0x159F6, offset: 0x159F6, size: 0x8, addend: 0x0, symName: __ZN6matrixI4fracE10getVerdictEv, symObjAddr: 0x4C74, symBinAddr: 0x100009024, symSize: 0x210 }
  - { offsetInCU: 0x15A93, offset: 0x15A93, size: 0x8, addend: 0x0, symName: __ZN6matrixI4fracE11getSolveSetEi, symObjAddr: 0x4E84, symBinAddr: 0x100009234, symSize: 0x2A8 }
  - { offsetInCU: 0x15B28, offset: 0x15B28, size: 0x8, addend: 0x0, symName: __ZN6matrixI4fracE11putSolveSetEv, symObjAddr: 0x512C, symBinAddr: 0x1000094DC, symSize: 0x28C }
  - { offsetInCU: 0x15BB6, offset: 0x15BB6, size: 0x8, addend: 0x0, symName: __ZN4frac4initExx, symObjAddr: 0x53B8, symBinAddr: 0x100009768, symSize: 0x78 }
  - { offsetInCU: 0x15BF7, offset: 0x15BF7, size: 0x8, addend: 0x0, symName: __ZNK4fracneERKS_, symObjAddr: 0x5430, symBinAddr: 0x1000097E0, symSize: 0x34 }
  - { offsetInCU: 0x15C2A, offset: 0x15C2A, size: 0x8, addend: 0x0, symName: __ZN6matrixI4fracE7inverseEv, symObjAddr: 0x5464, symBinAddr: 0x100009814, symSize: 0x1D8 }
  - { offsetInCU: 0x15CA1, offset: 0x15CA1, size: 0x8, addend: 0x0, symName: __ZN6matrixI4fracE13orthogonalizeEv, symObjAddr: 0x563C, symBinAddr: 0x1000099EC, symSize: 0x3E4 }
  - { offsetInCU: 0x15D93, offset: 0x15D93, size: 0x8, addend: 0x0, symName: __ZN6matrixI4fracE7unitizeEv, symObjAddr: 0x5A20, symBinAddr: 0x100009DD0, symSize: 0x58C }
  - { offsetInCU: 0x15EBB, offset: 0x15EBB, size: 0x8, addend: 0x0, symName: __ZN6matrixIdE9putMatrixEv, symObjAddr: 0x5FAC, symBinAddr: 0x10000A35C, symSize: 0x104 }
  - { offsetInCU: 0x15F1C, offset: 0x15F1C, size: 0x8, addend: 0x0, symName: __ZNSt3__16vectorINS0_I4fracNS_9allocatorIS1_EEEENS2_IS4_EEEixB8ue170006Em, symObjAddr: 0x60B0, symBinAddr: 0x10000A460, symSize: 0x2C }
  - { offsetInCU: 0x15F52, offset: 0x15F52, size: 0x8, addend: 0x0, symName: __ZNSt3__16vectorI4fracNS_9allocatorIS1_EEEixB8ue170006Em, symObjAddr: 0x60DC, symBinAddr: 0x10000A48C, symSize: 0x24 }
  - { offsetInCU: 0x15F88, offset: 0x15F88, size: 0x8, addend: 0x0, symName: __ZNKSt3__16vectorIdNS_9allocatorIdEEE4sizeB8ue170006Ev, symObjAddr: 0x6100, symBinAddr: 0x10000A4B0, symSize: 0x28 }
  - { offsetInCU: 0x15FAD, offset: 0x15FAD, size: 0x8, addend: 0x0, symName: __ZNSt3__16vectorI6matrixI4fracENS_9allocatorIS3_EEED1B8ue170006Ev, symObjAddr: 0x6128, symBinAddr: 0x10000A4D8, symSize: 0x2C }
  - { offsetInCU: 0x15FD6, offset: 0x15FD6, size: 0x8, addend: 0x0, symName: __ZN6matrixIdED2Ev, symObjAddr: 0x6154, symBinAddr: 0x10000A504, symSize: 0x30 }
  - { offsetInCU: 0x16002, offset: 0x16002, size: 0x8, addend: 0x0, symName: __ZNSt3__16vectorINS0_IdNS_9allocatorIdEEEENS1_IS3_EEED1B8ue170006Ev, symObjAddr: 0x6184, symBinAddr: 0x10000A534, symSize: 0x2C }
  - { offsetInCU: 0x1602B, offset: 0x1602B, size: 0x8, addend: 0x0, symName: __ZNSt3__16vectorINS0_IdNS_9allocatorIdEEEENS1_IS3_EEED2B8ue170006Ev, symObjAddr: 0x61B0, symBinAddr: 0x10000A560, symSize: 0x3C }
  - { offsetInCU: 0x16054, offset: 0x16054, size: 0x8, addend: 0x0, symName: __ZNSt3__16vectorINS0_IdNS_9allocatorIdEEEENS1_IS3_EEE16__destroy_vectorC1B8ue170006ERS5_, symObjAddr: 0x61EC, symBinAddr: 0x10000A59C, symSize: 0x34 }
  - { offsetInCU: 0x1608C, offset: 0x1608C, size: 0x8, addend: 0x0, symName: __ZNSt3__16vectorINS0_IdNS_9allocatorIdEEEENS1_IS3_EEE16__destroy_vectorclB8ue170006Ev, symObjAddr: 0x6220, symBinAddr: 0x10000A5D0, symSize: 0x90 }
  - { offsetInCU: 0x160B1, offset: 0x160B1, size: 0x8, addend: 0x0, symName: __ZNSt3__16vectorINS0_IdNS_9allocatorIdEEEENS1_IS3_EEE16__destroy_vectorC2B8ue170006ERS5_, symObjAddr: 0x62B0, symBinAddr: 0x10000A660, symSize: 0x20 }
  - { offsetInCU: 0x160E9, offset: 0x160E9, size: 0x8, addend: 0x0, symName: __ZNSt3__16vectorINS0_IdNS_9allocatorIdEEEENS1_IS3_EEE7__clearB8ue170006Ev, symObjAddr: 0x62D0, symBinAddr: 0x10000A680, symSize: 0x28 }
  - { offsetInCU: 0x1610E, offset: 0x1610E, size: 0x8, addend: 0x0, symName: __ZNKSt3__16vectorINS0_IdNS_9allocatorIdEEEENS1_IS3_EEE17__annotate_deleteB8ue170006Ev, symObjAddr: 0x62F8, symBinAddr: 0x10000A6A8, symSize: 0xD4 }
  - { offsetInCU: 0x16133, offset: 0x16133, size: 0x8, addend: 0x0, symName: __ZNSt3__116allocator_traitsINS_9allocatorINS_6vectorIdNS1_IdEEEEEEE10deallocateB8ue170006ERS5_PS4_m, symObjAddr: 0x63CC, symBinAddr: 0x10000A77C, symSize: 0x34 }
  - { offsetInCU: 0x16175, offset: 0x16175, size: 0x8, addend: 0x0, symName: __ZNSt3__16vectorINS0_IdNS_9allocatorIdEEEENS1_IS3_EEE7__allocB8ue170006Ev, symObjAddr: 0x6400, symBinAddr: 0x10000A7B0, symSize: 0x28 }
  - { offsetInCU: 0x1619A, offset: 0x1619A, size: 0x8, addend: 0x0, symName: __ZNKSt3__16vectorINS0_IdNS_9allocatorIdEEEENS1_IS3_EEE8capacityB8ue170006Ev, symObjAddr: 0x6428, symBinAddr: 0x10000A7D8, symSize: 0x40 }
  - { offsetInCU: 0x161BF, offset: 0x161BF, size: 0x8, addend: 0x0, symName: __ZNSt3__16vectorINS0_IdNS_9allocatorIdEEEENS1_IS3_EEE22__base_destruct_at_endB8ue170006EPS3_, symObjAddr: 0x6468, symBinAddr: 0x10000A818, symSize: 0xA0 }
  - { offsetInCU: 0x16202, offset: 0x16202, size: 0x8, addend: 0x0, symName: __ZNSt3__116allocator_traitsINS_9allocatorINS_6vectorIdNS1_IdEEEEEEE7destroyB8ue170006IS4_vEEvRS5_PT_, symObjAddr: 0x6508, symBinAddr: 0x10000A8B8, symSize: 0x2C }
  - { offsetInCU: 0x1623F, offset: 0x1623F, size: 0x8, addend: 0x0, symName: __ZNSt3__19allocatorINS_6vectorIdNS0_IdEEEEE7destroyB8ue170006EPS3_, symObjAddr: 0x6548, symBinAddr: 0x10000A8F8, symSize: 0x28 }
  - { offsetInCU: 0x16272, offset: 0x16272, size: 0x8, addend: 0x0, symName: __ZNKSt3__16vectorINS0_IdNS_9allocatorIdEEEENS1_IS3_EEE31__annotate_contiguous_containerB8ue170006EPKvS7_S7_S7_, symObjAddr: 0x6570, symBinAddr: 0x10000A920, symSize: 0x20 }
  - { offsetInCU: 0x162C7, offset: 0x162C7, size: 0x8, addend: 0x0, symName: __ZNKSt3__16vectorINS0_IdNS_9allocatorIdEEEENS1_IS3_EEE4dataB8ue170006Ev, symObjAddr: 0x6590, symBinAddr: 0x10000A940, symSize: 0x28 }
  - { offsetInCU: 0x162EC, offset: 0x162EC, size: 0x8, addend: 0x0, symName: __ZNKSt3__16vectorINS0_IdNS_9allocatorIdEEEENS1_IS3_EEE4sizeB8ue170006Ev, symObjAddr: 0x65B8, symBinAddr: 0x10000A968, symSize: 0x28 }
  - { offsetInCU: 0x16311, offset: 0x16311, size: 0x8, addend: 0x0, symName: __ZNSt3__19allocatorINS_6vectorIdNS0_IdEEEEE10deallocateB8ue170006EPS3_m, symObjAddr: 0x65E0, symBinAddr: 0x10000A990, symSize: 0x74 }
  - { offsetInCU: 0x16352, offset: 0x16352, size: 0x8, addend: 0x0, symName: __ZNSt3__117__compressed_pairIPNS_6vectorIdNS_9allocatorIdEEEENS2_IS4_EEE6secondB8ue170006Ev, symObjAddr: 0x66DC, symBinAddr: 0x10000AA8C, symSize: 0x24 }
  - { offsetInCU: 0x16377, offset: 0x16377, size: 0x8, addend: 0x0, symName: __ZNSt3__122__compressed_pair_elemINS_9allocatorINS_6vectorIdNS1_IdEEEEEELi1ELb1EE5__getB8ue170006Ev, symObjAddr: 0x6700, symBinAddr: 0x10000AAB0, symSize: 0x14 }
  - { offsetInCU: 0x1639C, offset: 0x1639C, size: 0x8, addend: 0x0, symName: __ZNKSt3__16vectorINS0_IdNS_9allocatorIdEEEENS1_IS3_EEE9__end_capB8ue170006Ev, symObjAddr: 0x6714, symBinAddr: 0x10000AAC4, symSize: 0x28 }
  - { offsetInCU: 0x163C1, offset: 0x163C1, size: 0x8, addend: 0x0, symName: __ZNKSt3__117__compressed_pairIPNS_6vectorIdNS_9allocatorIdEEEENS2_IS4_EEE5firstB8ue170006Ev, symObjAddr: 0x673C, symBinAddr: 0x10000AAEC, symSize: 0x24 }
  - { offsetInCU: 0x163E6, offset: 0x163E6, size: 0x8, addend: 0x0, symName: __ZNKSt3__122__compressed_pair_elemIPNS_6vectorIdNS_9allocatorIdEEEELi0ELb0EE5__getB8ue170006Ev, symObjAddr: 0x6760, symBinAddr: 0x10000AB10, symSize: 0x14 }
  - { offsetInCU: 0x1640B, offset: 0x1640B, size: 0x8, addend: 0x0, symName: __ZNSt3__14pairI6matrixIdES2_ED2Ev, symObjAddr: 0x6774, symBinAddr: 0x10000AB24, symSize: 0x68 }
  - { offsetInCU: 0x16436, offset: 0x16436, size: 0x8, addend: 0x0, symName: __ZN6matrixI4fracED2Ev, symObjAddr: 0x67DC, symBinAddr: 0x10000AB8C, symSize: 0x30 }
  - { offsetInCU: 0x16462, offset: 0x16462, size: 0x8, addend: 0x0, symName: __ZNSt3__16vectorINS0_I4fracNS_9allocatorIS1_EEEENS2_IS4_EEED1B8ue170006Ev, symObjAddr: 0x680C, symBinAddr: 0x10000ABBC, symSize: 0x2C }
  - { offsetInCU: 0x1648B, offset: 0x1648B, size: 0x8, addend: 0x0, symName: __ZNSt3__16vectorINS0_I4fracNS_9allocatorIS1_EEEENS2_IS4_EEED2B8ue170006Ev, symObjAddr: 0x6838, symBinAddr: 0x10000ABE8, symSize: 0x3C }
  - { offsetInCU: 0x164B4, offset: 0x164B4, size: 0x8, addend: 0x0, symName: __ZNSt3__16vectorINS0_I4fracNS_9allocatorIS1_EEEENS2_IS4_EEE16__destroy_vectorC1B8ue170006ERS6_, symObjAddr: 0x6874, symBinAddr: 0x10000AC24, symSize: 0x34 }
  - { offsetInCU: 0x164EC, offset: 0x164EC, size: 0x8, addend: 0x0, symName: __ZNSt3__16vectorINS0_I4fracNS_9allocatorIS1_EEEENS2_IS4_EEE16__destroy_vectorclB8ue170006Ev, symObjAddr: 0x68A8, symBinAddr: 0x10000AC58, symSize: 0x90 }
  - { offsetInCU: 0x16511, offset: 0x16511, size: 0x8, addend: 0x0, symName: __ZNSt3__16vectorINS0_I4fracNS_9allocatorIS1_EEEENS2_IS4_EEE16__destroy_vectorC2B8ue170006ERS6_, symObjAddr: 0x6938, symBinAddr: 0x10000ACE8, symSize: 0x20 }
  - { offsetInCU: 0x16549, offset: 0x16549, size: 0x8, addend: 0x0, symName: __ZNSt3__16vectorINS0_I4fracNS_9allocatorIS1_EEEENS2_IS4_EEE7__clearB8ue170006Ev, symObjAddr: 0x6958, symBinAddr: 0x10000AD08, symSize: 0x28 }
  - { offsetInCU: 0x1656E, offset: 0x1656E, size: 0x8, addend: 0x0, symName: __ZNKSt3__16vectorINS0_I4fracNS_9allocatorIS1_EEEENS2_IS4_EEE17__annotate_deleteB8ue170006Ev, symObjAddr: 0x6980, symBinAddr: 0x10000AD30, symSize: 0xD4 }
  - { offsetInCU: 0x16593, offset: 0x16593, size: 0x8, addend: 0x0, symName: __ZNSt3__116allocator_traitsINS_9allocatorINS_6vectorI4fracNS1_IS3_EEEEEEE10deallocateB8ue170006ERS6_PS5_m, symObjAddr: 0x6A54, symBinAddr: 0x10000AE04, symSize: 0x34 }
  - { offsetInCU: 0x165D5, offset: 0x165D5, size: 0x8, addend: 0x0, symName: __ZNSt3__16vectorINS0_I4fracNS_9allocatorIS1_EEEENS2_IS4_EEE7__allocB8ue170006Ev, symObjAddr: 0x6A88, symBinAddr: 0x10000AE38, symSize: 0x28 }
  - { offsetInCU: 0x165FA, offset: 0x165FA, size: 0x8, addend: 0x0, symName: __ZNKSt3__16vectorINS0_I4fracNS_9allocatorIS1_EEEENS2_IS4_EEE8capacityB8ue170006Ev, symObjAddr: 0x6AB0, symBinAddr: 0x10000AE60, symSize: 0x40 }
  - { offsetInCU: 0x1661F, offset: 0x1661F, size: 0x8, addend: 0x0, symName: __ZNSt3__16vectorINS0_I4fracNS_9allocatorIS1_EEEENS2_IS4_EEE22__base_destruct_at_endB8ue170006EPS4_, symObjAddr: 0x6AF0, symBinAddr: 0x10000AEA0, symSize: 0xA0 }
  - { offsetInCU: 0x16662, offset: 0x16662, size: 0x8, addend: 0x0, symName: __ZNSt3__116allocator_traitsINS_9allocatorINS_6vectorI4fracNS1_IS3_EEEEEEE7destroyB8ue170006IS5_vEEvRS6_PT_, symObjAddr: 0x6B90, symBinAddr: 0x10000AF40, symSize: 0x2C }
  - { offsetInCU: 0x1669F, offset: 0x1669F, size: 0x8, addend: 0x0, symName: __ZNSt3__19allocatorINS_6vectorI4fracNS0_IS2_EEEEE7destroyB8ue170006EPS4_, symObjAddr: 0x6BD0, symBinAddr: 0x10000AF80, symSize: 0x28 }
  - { offsetInCU: 0x166D2, offset: 0x166D2, size: 0x8, addend: 0x0, symName: __ZNSt3__16vectorI4fracNS_9allocatorIS1_EEED1B8ue170006Ev, symObjAddr: 0x6BF8, symBinAddr: 0x10000AFA8, symSize: 0x2C }
  - { offsetInCU: 0x166FB, offset: 0x166FB, size: 0x8, addend: 0x0, symName: __ZNSt3__16vectorI4fracNS_9allocatorIS1_EEED2B8ue170006Ev, symObjAddr: 0x6C24, symBinAddr: 0x10000AFD4, symSize: 0x3C }
  - { offsetInCU: 0x16724, offset: 0x16724, size: 0x8, addend: 0x0, symName: __ZNSt3__16vectorI4fracNS_9allocatorIS1_EEE16__destroy_vectorC1B8ue170006ERS4_, symObjAddr: 0x6C60, symBinAddr: 0x10000B010, symSize: 0x34 }
  - { offsetInCU: 0x1675C, offset: 0x1675C, size: 0x8, addend: 0x0, symName: __ZNSt3__16vectorI4fracNS_9allocatorIS1_EEE16__destroy_vectorclB8ue170006Ev, symObjAddr: 0x6C94, symBinAddr: 0x10000B044, symSize: 0x90 }
  - { offsetInCU: 0x16781, offset: 0x16781, size: 0x8, addend: 0x0, symName: __ZNSt3__16vectorI4fracNS_9allocatorIS1_EEE16__destroy_vectorC2B8ue170006ERS4_, symObjAddr: 0x6D24, symBinAddr: 0x10000B0D4, symSize: 0x20 }
  - { offsetInCU: 0x167B9, offset: 0x167B9, size: 0x8, addend: 0x0, symName: __ZNSt3__16vectorI4fracNS_9allocatorIS1_EEE7__clearB8ue170006Ev, symObjAddr: 0x6D44, symBinAddr: 0x10000B0F4, symSize: 0x28 }
  - { offsetInCU: 0x167DE, offset: 0x167DE, size: 0x8, addend: 0x0, symName: __ZNKSt3__16vectorI4fracNS_9allocatorIS1_EEE17__annotate_deleteB8ue170006Ev, symObjAddr: 0x6D6C, symBinAddr: 0x10000B11C, symSize: 0xB8 }
  - { offsetInCU: 0x16803, offset: 0x16803, size: 0x8, addend: 0x0, symName: __ZNSt3__116allocator_traitsINS_9allocatorI4fracEEE10deallocateB8ue170006ERS3_PS2_m, symObjAddr: 0x6E24, symBinAddr: 0x10000B1D4, symSize: 0x34 }
  - { offsetInCU: 0x16845, offset: 0x16845, size: 0x8, addend: 0x0, symName: __ZNSt3__16vectorI4fracNS_9allocatorIS1_EEE7__allocB8ue170006Ev, symObjAddr: 0x6E58, symBinAddr: 0x10000B208, symSize: 0x28 }
  - { offsetInCU: 0x1686A, offset: 0x1686A, size: 0x8, addend: 0x0, symName: __ZNKSt3__16vectorI4fracNS_9allocatorIS1_EEE8capacityB8ue170006Ev, symObjAddr: 0x6E80, symBinAddr: 0x10000B230, symSize: 0x40 }
  - { offsetInCU: 0x1688F, offset: 0x1688F, size: 0x8, addend: 0x0, symName: __ZNSt3__16vectorI4fracNS_9allocatorIS1_EEE22__base_destruct_at_endB8ue170006EPS1_, symObjAddr: 0x6EC0, symBinAddr: 0x10000B270, symSize: 0xA0 }
  - { offsetInCU: 0x168D2, offset: 0x168D2, size: 0x8, addend: 0x0, symName: __ZNSt3__116allocator_traitsINS_9allocatorI4fracEEE7destroyB8ue170006IS2_vEEvRS3_PT_, symObjAddr: 0x6F60, symBinAddr: 0x10000B310, symSize: 0x2C }
  - { offsetInCU: 0x1690F, offset: 0x1690F, size: 0x8, addend: 0x0, symName: __ZNSt3__19allocatorI4fracE7destroyB8ue170006EPS1_, symObjAddr: 0x6FA0, symBinAddr: 0x10000B350, symSize: 0x14 }
  - { offsetInCU: 0x16942, offset: 0x16942, size: 0x8, addend: 0x0, symName: __ZNKSt3__16vectorI4fracNS_9allocatorIS1_EEE31__annotate_contiguous_containerB8ue170006EPKvS6_S6_S6_, symObjAddr: 0x6FB4, symBinAddr: 0x10000B364, symSize: 0x20 }
  - { offsetInCU: 0x16997, offset: 0x16997, size: 0x8, addend: 0x0, symName: __ZNKSt3__16vectorI4fracNS_9allocatorIS1_EEE4dataB8ue170006Ev, symObjAddr: 0x6FD4, symBinAddr: 0x10000B384, symSize: 0x28 }
  - { offsetInCU: 0x169BC, offset: 0x169BC, size: 0x8, addend: 0x0, symName: __ZNSt3__19allocatorI4fracE10deallocateB8ue170006EPS1_m, symObjAddr: 0x6FFC, symBinAddr: 0x10000B3AC, symSize: 0x70 }
  - { offsetInCU: 0x169FD, offset: 0x169FD, size: 0x8, addend: 0x0, symName: __ZNSt3__117__compressed_pairIP4fracNS_9allocatorIS1_EEE6secondB8ue170006Ev, symObjAddr: 0x706C, symBinAddr: 0x10000B41C, symSize: 0x24 }
  - { offsetInCU: 0x16A22, offset: 0x16A22, size: 0x8, addend: 0x0, symName: __ZNSt3__122__compressed_pair_elemINS_9allocatorI4fracEELi1ELb1EE5__getB8ue170006Ev, symObjAddr: 0x7090, symBinAddr: 0x10000B440, symSize: 0x14 }
  - { offsetInCU: 0x16A47, offset: 0x16A47, size: 0x8, addend: 0x0, symName: __ZNKSt3__16vectorI4fracNS_9allocatorIS1_EEE9__end_capB8ue170006Ev, symObjAddr: 0x70A4, symBinAddr: 0x10000B454, symSize: 0x28 }
  - { offsetInCU: 0x16A6C, offset: 0x16A6C, size: 0x8, addend: 0x0, symName: __ZNKSt3__117__compressed_pairIP4fracNS_9allocatorIS1_EEE5firstB8ue170006Ev, symObjAddr: 0x70CC, symBinAddr: 0x10000B47C, symSize: 0x24 }
  - { offsetInCU: 0x16A91, offset: 0x16A91, size: 0x8, addend: 0x0, symName: __ZNKSt3__122__compressed_pair_elemIP4fracLi0ELb0EE5__getB8ue170006Ev, symObjAddr: 0x70F0, symBinAddr: 0x10000B4A0, symSize: 0x14 }
  - { offsetInCU: 0x16AB6, offset: 0x16AB6, size: 0x8, addend: 0x0, symName: __ZNKSt3__16vectorINS0_I4fracNS_9allocatorIS1_EEEENS2_IS4_EEE31__annotate_contiguous_containerB8ue170006EPKvS8_S8_S8_, symObjAddr: 0x7104, symBinAddr: 0x10000B4B4, symSize: 0x20 }
  - { offsetInCU: 0x16B0B, offset: 0x16B0B, size: 0x8, addend: 0x0, symName: __ZNKSt3__16vectorINS0_I4fracNS_9allocatorIS1_EEEENS2_IS4_EEE4dataB8ue170006Ev, symObjAddr: 0x7124, symBinAddr: 0x10000B4D4, symSize: 0x28 }
  - { offsetInCU: 0x16B30, offset: 0x16B30, size: 0x8, addend: 0x0, symName: __ZNKSt3__16vectorINS0_I4fracNS_9allocatorIS1_EEEENS2_IS4_EEE4sizeB8ue170006Ev, symObjAddr: 0x714C, symBinAddr: 0x10000B4FC, symSize: 0x28 }
  - { offsetInCU: 0x16B55, offset: 0x16B55, size: 0x8, addend: 0x0, symName: __ZNSt3__19allocatorINS_6vectorI4fracNS0_IS2_EEEEE10deallocateB8ue170006EPS4_m, symObjAddr: 0x7174, symBinAddr: 0x10000B524, symSize: 0x74 }
  - { offsetInCU: 0x16B96, offset: 0x16B96, size: 0x8, addend: 0x0, symName: __ZNSt3__117__compressed_pairIPNS_6vectorI4fracNS_9allocatorIS2_EEEENS3_IS5_EEE6secondB8ue170006Ev, symObjAddr: 0x71E8, symBinAddr: 0x10000B598, symSize: 0x24 }
  - { offsetInCU: 0x16BBB, offset: 0x16BBB, size: 0x8, addend: 0x0, symName: __ZNSt3__122__compressed_pair_elemINS_9allocatorINS_6vectorI4fracNS1_IS3_EEEEEELi1ELb1EE5__getB8ue170006Ev, symObjAddr: 0x720C, symBinAddr: 0x10000B5BC, symSize: 0x14 }
  - { offsetInCU: 0x16BE0, offset: 0x16BE0, size: 0x8, addend: 0x0, symName: __ZNKSt3__16vectorINS0_I4fracNS_9allocatorIS1_EEEENS2_IS4_EEE9__end_capB8ue170006Ev, symObjAddr: 0x7220, symBinAddr: 0x10000B5D0, symSize: 0x28 }
  - { offsetInCU: 0x16C05, offset: 0x16C05, size: 0x8, addend: 0x0, symName: __ZNKSt3__117__compressed_pairIPNS_6vectorI4fracNS_9allocatorIS2_EEEENS3_IS5_EEE5firstB8ue170006Ev, symObjAddr: 0x7248, symBinAddr: 0x10000B5F8, symSize: 0x24 }
  - { offsetInCU: 0x16C2A, offset: 0x16C2A, size: 0x8, addend: 0x0, symName: __ZNKSt3__122__compressed_pair_elemIPNS_6vectorI4fracNS_9allocatorIS2_EEEELi0ELb0EE5__getB8ue170006Ev, symObjAddr: 0x726C, symBinAddr: 0x10000B61C, symSize: 0x14 }
  - { offsetInCU: 0x16C4F, offset: 0x16C4F, size: 0x8, addend: 0x0, symName: __ZN4fracC2Ev, symObjAddr: 0x7280, symBinAddr: 0x10000B630, symSize: 0x20 }
  - { offsetInCU: 0x16C78, offset: 0x16C78, size: 0x8, addend: 0x0, symName: __ZN4frac6reduceEv, symObjAddr: 0x72A0, symBinAddr: 0x10000B650, symSize: 0x8C }
  - { offsetInCU: 0x16CAA, offset: 0x16CAA, size: 0x8, addend: 0x0, symName: __Z3absB8ue170006x, symObjAddr: 0x732C, symBinAddr: 0x10000B6DC, symSize: 0x28 }
  - { offsetInCU: 0x16CD7, offset: 0x16CD7, size: 0x8, addend: 0x0, symName: __ZNK4fraceqERKS_, symObjAddr: 0x7354, symBinAddr: 0x10000B704, symSize: 0x68 }
  - { offsetInCU: 0x16D0A, offset: 0x16D0A, size: 0x8, addend: 0x0, symName: __ZNSt3__112basic_stringIcNS_11char_traitsIcEENS_9allocatorIcEEEC2B8ue170006Ev, symObjAddr: 0x73BC, symBinAddr: 0x10000B76C, symSize: 0x3C }
  - { offsetInCU: 0x16D38, offset: 0x16D38, size: 0x8, addend: 0x0, symName: __ZNSt3__117__compressed_pairINS_12basic_stringIcNS_11char_traitsIcEENS_9allocatorIcEEE5__repES5_EC1B8ue170006INS_18__default_init_tagESA_EEOT_OT0_, symObjAddr: 0x73F8, symBinAddr: 0x10000B7A8, symSize: 0x3C }
  - { offsetInCU: 0x16D8F, offset: 0x16D8F, size: 0x8, addend: 0x0, symName: __ZNSt3__112basic_stringIcNS_11char_traitsIcEENS_9allocatorIcEEE14__default_initB8ue170006Ev, symObjAddr: 0x7434, symBinAddr: 0x10000B7E4, symSize: 0xB0 }
  - { offsetInCU: 0x16DE1, offset: 0x16DE1, size: 0x8, addend: 0x0, symName: __ZNSt3__117__compressed_pairINS_12basic_stringIcNS_11char_traitsIcEENS_9allocatorIcEEE5__repES5_EC2B8ue170006INS_18__default_init_tagESA_EEOT_OT0_, symObjAddr: 0x74E4, symBinAddr: 0x10000B894, symSize: 0x3C }
  - { offsetInCU: 0x16E38, offset: 0x16E38, size: 0x8, addend: 0x0, symName: __ZNSt3__122__compressed_pair_elemINS_12basic_stringIcNS_11char_traitsIcEENS_9allocatorIcEEE5__repELi0ELb0EEC2B8ue170006ENS_18__default_init_tagE, symObjAddr: 0x7520, symBinAddr: 0x10000B8D0, symSize: 0x14 }
  - { offsetInCU: 0x16E6B, offset: 0x16E6B, size: 0x8, addend: 0x0, symName: __ZNSt3__122__compressed_pair_elemINS_9allocatorIcEELi1ELb1EEC2B8ue170006ENS_18__default_init_tagE, symObjAddr: 0x7534, symBinAddr: 0x10000B8E4, symSize: 0x2C }
  - { offsetInCU: 0x16E9E, offset: 0x16E9E, size: 0x8, addend: 0x0, symName: __ZNSt3__19allocatorIcEC2B8ue170006Ev, symObjAddr: 0x7560, symBinAddr: 0x10000B910, symSize: 0x2C }
  - { offsetInCU: 0x16EC7, offset: 0x16EC7, size: 0x8, addend: 0x0, symName: __ZNSt3__116__non_trivial_ifILb1ENS_9allocatorIcEEEC2B8ue170006Ev, symObjAddr: 0x758C, symBinAddr: 0x10000B93C, symSize: 0x14 }
  - { offsetInCU: 0x16EF0, offset: 0x16EF0, size: 0x8, addend: 0x0, symName: __ZNSt3__117__compressed_pairINS_12basic_stringIcNS_11char_traitsIcEENS_9allocatorIcEEE5__repES5_E5firstB8ue170006Ev, symObjAddr: 0x75A0, symBinAddr: 0x10000B950, symSize: 0x24 }
  - { offsetInCU: 0x16F15, offset: 0x16F15, size: 0x8, addend: 0x0, symName: __ZNSt3__112basic_stringIcNS_11char_traitsIcEENS_9allocatorIcEEE11__recommendB8ue170006Em, symObjAddr: 0x75C4, symBinAddr: 0x10000B974, symSize: 0x9C }
  - { offsetInCU: 0x16F48, offset: 0x16F48, size: 0x8, addend: 0x0, symName: __ZNSt3__116allocator_traitsINS_9allocatorIcEEE8allocateB8ue170006ERS2_m, symObjAddr: 0x7660, symBinAddr: 0x10000BA10, symSize: 0x2C }
  - { offsetInCU: 0x16F7B, offset: 0x16F7B, size: 0x8, addend: 0x0, symName: __ZNSt3__112basic_stringIcNS_11char_traitsIcEENS_9allocatorIcEEE7__allocB8ue170006Ev, symObjAddr: 0x768C, symBinAddr: 0x10000BA3C, symSize: 0x24 }
  - { offsetInCU: 0x16FA0, offset: 0x16FA0, size: 0x8, addend: 0x0, symName: __ZNSt3__112basic_stringIcNS_11char_traitsIcEENS_9allocatorIcEEE16__begin_lifetimeB8ue170006EPcm, symObjAddr: 0x76B0, symBinAddr: 0x10000BA60, symSize: 0x14 }
  - { offsetInCU: 0x16FD3, offset: 0x16FD3, size: 0x8, addend: 0x0, symName: __ZNSt3__112basic_stringIcNS_11char_traitsIcEENS_9allocatorIcEEE18__set_long_pointerB8ue170006EPc, symObjAddr: 0x76C4, symBinAddr: 0x10000BA74, symSize: 0x38 }
  - { offsetInCU: 0x17007, offset: 0x17007, size: 0x8, addend: 0x0, symName: __ZNSt3__112basic_stringIcNS_11char_traitsIcEENS_9allocatorIcEEE14__set_long_capB8ue170006Em, symObjAddr: 0x76FC, symBinAddr: 0x10000BAAC, symSize: 0x70 }
  - { offsetInCU: 0x1703B, offset: 0x1703B, size: 0x8, addend: 0x0, symName: __ZNSt3__112basic_stringIcNS_11char_traitsIcEENS_9allocatorIcEEE15__set_long_sizeB8ue170006Em, symObjAddr: 0x776C, symBinAddr: 0x10000BB1C, symSize: 0x38 }
  - { offsetInCU: 0x1706F, offset: 0x1706F, size: 0x8, addend: 0x0, symName: __ZNSt3__122__compressed_pair_elemINS_12basic_stringIcNS_11char_traitsIcEENS_9allocatorIcEEE5__repELi0ELb0EE5__getB8ue170006Ev, symObjAddr: 0x77A4, symBinAddr: 0x10000BB54, symSize: 0x14 }
  - { offsetInCU: 0x17094, offset: 0x17094, size: 0x8, addend: 0x0, symName: __ZNSt3__112basic_stringIcNS_11char_traitsIcEENS_9allocatorIcEEE10__align_itB8ue170006ILm16EEEmm, symObjAddr: 0x77B8, symBinAddr: 0x10000BB68, symSize: 0x1C }
  - { offsetInCU: 0x170C2, offset: 0x170C2, size: 0x8, addend: 0x0, symName: __ZNSt3__19allocatorIcE8allocateB8ue170006Em, symObjAddr: 0x77D4, symBinAddr: 0x10000BB84, symSize: 0x84 }
  - { offsetInCU: 0x170FF, offset: 0x170FF, size: 0x8, addend: 0x0, symName: __ZNSt3__116allocator_traitsINS_9allocatorIcEEE8max_sizeB8ue170006IS2_vEEmRKS2_, symObjAddr: 0x7858, symBinAddr: 0x10000BC08, symSize: 0x24 }
  - { offsetInCU: 0x1712D, offset: 0x1712D, size: 0x8, addend: 0x0, symName: __ZNKSt3__19allocatorIcE8max_sizeB8ue170006Ev, symObjAddr: 0x78D8, symBinAddr: 0x10000BC88, symSize: 0x14 }
  - { offsetInCU: 0x17152, offset: 0x17152, size: 0x8, addend: 0x0, symName: __ZNSt3__117__compressed_pairINS_12basic_stringIcNS_11char_traitsIcEENS_9allocatorIcEEE5__repES5_E6secondB8ue170006Ev, symObjAddr: 0x7910, symBinAddr: 0x10000BCC0, symSize: 0x24 }
  - { offsetInCU: 0x17177, offset: 0x17177, size: 0x8, addend: 0x0, symName: __ZNSt3__122__compressed_pair_elemINS_9allocatorIcEELi1ELb1EE5__getB8ue170006Ev, symObjAddr: 0x7934, symBinAddr: 0x10000BCE4, symSize: 0x14 }
  - { offsetInCU: 0x1719C, offset: 0x1719C, size: 0x8, addend: 0x0, symName: __ZN4fracC1Ei, symObjAddr: 0x7948, symBinAddr: 0x10000BCF8, symSize: 0x34 }
  - { offsetInCU: 0x171D3, offset: 0x171D3, size: 0x8, addend: 0x0, symName: __ZNK4fracplERKS_, symObjAddr: 0x79A8, symBinAddr: 0x10000BD58, symSize: 0xC0 }
  - { offsetInCU: 0x1725B, offset: 0x1725B, size: 0x8, addend: 0x0, symName: __ZNK4fracmlERKS_, symObjAddr: 0x7A68, symBinAddr: 0x10000BE18, symSize: 0x8C }
  - { offsetInCU: 0x172D5, offset: 0x172D5, size: 0x8, addend: 0x0, symName: __ZN4fracC2Ei, symObjAddr: 0x7AF4, symBinAddr: 0x10000BEA4, symSize: 0x28 }
  - { offsetInCU: 0x17320, offset: 0x17320, size: 0x8, addend: 0x0, symName: __ZNKSt3__16__lessIvvEclB8ue170006ImmEEbRKT_RKT0_, symObjAddr: 0x7B70, symBinAddr: 0x10000BF20, symSize: 0x34 }
  - { offsetInCU: 0x17372, offset: 0x17372, size: 0x8, addend: 0x0, symName: __Z3lcmxx, symObjAddr: 0x7BA4, symBinAddr: 0x10000BF54, symSize: 0x44 }
  - { offsetInCU: 0x173AD, offset: 0x173AD, size: 0x8, addend: 0x0, symName: __ZNSt3__16vectorIdNS_9allocatorIdEEEC2EmRKd, symObjAddr: 0x7BE8, symBinAddr: 0x10000BF98, symSize: 0xE4 }
  - { offsetInCU: 0x17410, offset: 0x17410, size: 0x8, addend: 0x0, symName: __ZNSt3__117__compressed_pairIPdNS_9allocatorIdEEEC1B8ue170006IDnNS_18__default_init_tagEEEOT_OT0_, symObjAddr: 0x7CCC, symBinAddr: 0x10000C07C, symSize: 0x3C }
  - { offsetInCU: 0x17467, offset: 0x17467, size: 0x8, addend: 0x0, symName: __ZNSt3__16vectorIdNS_9allocatorIdEEE16__destroy_vectorC1B8ue170006ERS3_, symObjAddr: 0x7D48, symBinAddr: 0x10000C0F8, symSize: 0x34 }
  - { offsetInCU: 0x1749F, offset: 0x1749F, size: 0x8, addend: 0x0, symName: __ZNSt3__16vectorIdNS_9allocatorIdEEE11__vallocateB8ue170006Em, symObjAddr: 0x7D7C, symBinAddr: 0x10000C12C, symSize: 0xAC }
  - { offsetInCU: 0x174E1, offset: 0x174E1, size: 0x8, addend: 0x0, symName: __ZNSt3__16vectorIdNS_9allocatorIdEEE18__construct_at_endEmRKd, symObjAddr: 0x7E28, symBinAddr: 0x10000C1D8, symSize: 0xD8 }
  - { offsetInCU: 0x17562, offset: 0x17562, size: 0x8, addend: 0x0, symName: __ZNSt3__128__exception_guard_exceptionsINS_6vectorIdNS_9allocatorIdEEE16__destroy_vectorEE10__completeB8ue170006Ev, symObjAddr: 0x7F00, symBinAddr: 0x10000C2B0, symSize: 0x1C }
  - { offsetInCU: 0x17587, offset: 0x17587, size: 0x8, addend: 0x0, symName: __ZNSt3__128__exception_guard_exceptionsINS_6vectorIdNS_9allocatorIdEEE16__destroy_vectorEED1B8ue170006Ev, symObjAddr: 0x7F1C, symBinAddr: 0x10000C2CC, symSize: 0x2C }
  - { offsetInCU: 0x175B0, offset: 0x175B0, size: 0x8, addend: 0x0, symName: __ZNSt3__117__compressed_pairIPdNS_9allocatorIdEEEC2B8ue170006IDnNS_18__default_init_tagEEEOT_OT0_, symObjAddr: 0x7F48, symBinAddr: 0x10000C2F8, symSize: 0x40 }
  - { offsetInCU: 0x17607, offset: 0x17607, size: 0x8, addend: 0x0, symName: __ZNSt3__122__compressed_pair_elemIPdLi0ELb0EEC2B8ue170006IDnvEEOT_, symObjAddr: 0x7F88, symBinAddr: 0x10000C338, symSize: 0x1C }
  - { offsetInCU: 0x17648, offset: 0x17648, size: 0x8, addend: 0x0, symName: __ZNSt3__122__compressed_pair_elemINS_9allocatorIdEELi1ELb1EEC2B8ue170006ENS_18__default_init_tagE, symObjAddr: 0x7FA4, symBinAddr: 0x10000C354, symSize: 0x2C }
  - { offsetInCU: 0x1767B, offset: 0x1767B, size: 0x8, addend: 0x0, symName: __ZNSt3__19allocatorIdEC2B8ue170006Ev, symObjAddr: 0x7FD0, symBinAddr: 0x10000C380, symSize: 0x2C }
  - { offsetInCU: 0x176A4, offset: 0x176A4, size: 0x8, addend: 0x0, symName: __ZNSt3__116__non_trivial_ifILb1ENS_9allocatorIdEEEC2B8ue170006Ev, symObjAddr: 0x7FFC, symBinAddr: 0x10000C3AC, symSize: 0x14 }
  - { offsetInCU: 0x176CD, offset: 0x176CD, size: 0x8, addend: 0x0, symName: __ZNSt3__128__exception_guard_exceptionsINS_6vectorIdNS_9allocatorIdEEE16__destroy_vectorEEC1B8ue170006ES5_, symObjAddr: 0x8010, symBinAddr: 0x10000C3C0, symSize: 0x34 }
  - { offsetInCU: 0x17704, offset: 0x17704, size: 0x8, addend: 0x0, symName: __ZNSt3__128__exception_guard_exceptionsINS_6vectorIdNS_9allocatorIdEEE16__destroy_vectorEEC2B8ue170006ES5_, symObjAddr: 0x8044, symBinAddr: 0x10000C3F4, symSize: 0x24 }
  - { offsetInCU: 0x1773B, offset: 0x1773B, size: 0x8, addend: 0x0, symName: __ZNSt3__16vectorIdNS_9allocatorIdEEE16__destroy_vectorC2B8ue170006ERS3_, symObjAddr: 0x8068, symBinAddr: 0x10000C418, symSize: 0x20 }
  - { offsetInCU: 0x17772, offset: 0x17772, size: 0x8, addend: 0x0, symName: __ZNKSt3__16vectorIdNS_9allocatorIdEEE8max_sizeEv, symObjAddr: 0x8088, symBinAddr: 0x10000C438, symSize: 0x74 }
  - { offsetInCU: 0x17799, offset: 0x17799, size: 0x8, addend: 0x0, symName: __ZNKSt3__16vectorIdNS_9allocatorIdEEE20__throw_length_errorB8ue170006Ev, symObjAddr: 0x80FC, symBinAddr: 0x10000C4AC, symSize: 0x1C }
  - { offsetInCU: 0x177BE, offset: 0x177BE, size: 0x8, addend: 0x0, symName: __ZNSt3__16vectorIdNS_9allocatorIdEEE7__allocB8ue170006Ev, symObjAddr: 0x8158, symBinAddr: 0x10000C508, symSize: 0x28 }
  - { offsetInCU: 0x177E3, offset: 0x177E3, size: 0x8, addend: 0x0, symName: __ZNSt3__16vectorIdNS_9allocatorIdEEE9__end_capB8ue170006Ev, symObjAddr: 0x8180, symBinAddr: 0x10000C530, symSize: 0x28 }
  - { offsetInCU: 0x17808, offset: 0x17808, size: 0x8, addend: 0x0, symName: __ZNKSt3__16vectorIdNS_9allocatorIdEEE14__annotate_newB8ue170006Em, symObjAddr: 0x81A8, symBinAddr: 0x10000C558, symSize: 0xAC }
  - { offsetInCU: 0x17846, offset: 0x17846, size: 0x8, addend: 0x0, symName: __ZNSt3__116allocator_traitsINS_9allocatorIdEEE8max_sizeB8ue170006IS2_vEEmRKS2_, symObjAddr: 0x8254, symBinAddr: 0x10000C604, symSize: 0x24 }
  - { offsetInCU: 0x17874, offset: 0x17874, size: 0x8, addend: 0x0, symName: __ZNKSt3__16vectorIdNS_9allocatorIdEEE7__allocB8ue170006Ev, symObjAddr: 0x8278, symBinAddr: 0x10000C628, symSize: 0x28 }
  - { offsetInCU: 0x17899, offset: 0x17899, size: 0x8, addend: 0x0, symName: __ZNSt3__114numeric_limitsIlE3maxB8ue170006Ev, symObjAddr: 0x82A0, symBinAddr: 0x10000C650, symSize: 0x14 }
  - { offsetInCU: 0x178AD, offset: 0x178AD, size: 0x8, addend: 0x0, symName: __ZNKSt3__19allocatorIdE8max_sizeB8ue170006Ev, symObjAddr: 0x82B4, symBinAddr: 0x10000C664, symSize: 0x14 }
  - { offsetInCU: 0x178D2, offset: 0x178D2, size: 0x8, addend: 0x0, symName: __ZNKSt3__117__compressed_pairIPdNS_9allocatorIdEEE6secondB8ue170006Ev, symObjAddr: 0x82C8, symBinAddr: 0x10000C678, symSize: 0x24 }
  - { offsetInCU: 0x178F7, offset: 0x178F7, size: 0x8, addend: 0x0, symName: __ZNKSt3__122__compressed_pair_elemINS_9allocatorIdEELi1ELb1EE5__getB8ue170006Ev, symObjAddr: 0x82EC, symBinAddr: 0x10000C69C, symSize: 0x14 }
  - { offsetInCU: 0x1791C, offset: 0x1791C, size: 0x8, addend: 0x0, symName: __ZNSt3__123__libcpp_numeric_limitsIlLb1EE3maxB8ue170006Ev, symObjAddr: 0x8300, symBinAddr: 0x10000C6B0, symSize: 0x8 }
  - { offsetInCU: 0x17930, offset: 0x17930, size: 0x8, addend: 0x0, symName: __ZNSt12length_errorC1B8ue170006EPKc, symObjAddr: 0x836C, symBinAddr: 0x10000C71C, symSize: 0x34 }
  - { offsetInCU: 0x17967, offset: 0x17967, size: 0x8, addend: 0x0, symName: __ZNSt12length_errorC2B8ue170006EPKc, symObjAddr: 0x83A0, symBinAddr: 0x10000C750, symSize: 0x4C }
  - { offsetInCU: 0x1799E, offset: 0x1799E, size: 0x8, addend: 0x0, symName: __ZNSt3__19allocatorIdE8allocateB8ue170006Em, symObjAddr: 0x83EC, symBinAddr: 0x10000C79C, symSize: 0x84 }
  - { offsetInCU: 0x179D1, offset: 0x179D1, size: 0x8, addend: 0x0, symName: __ZNSt3__117__compressed_pairIPdNS_9allocatorIdEEE6secondB8ue170006Ev, symObjAddr: 0x8470, symBinAddr: 0x10000C820, symSize: 0x24 }
  - { offsetInCU: 0x179F6, offset: 0x179F6, size: 0x8, addend: 0x0, symName: __ZNSt3__122__compressed_pair_elemINS_9allocatorIdEELi1ELb1EE5__getB8ue170006Ev, symObjAddr: 0x8494, symBinAddr: 0x10000C844, symSize: 0x14 }
  - { offsetInCU: 0x17A1B, offset: 0x17A1B, size: 0x8, addend: 0x0, symName: __ZNSt3__117__compressed_pairIPdNS_9allocatorIdEEE5firstB8ue170006Ev, symObjAddr: 0x84A8, symBinAddr: 0x10000C858, symSize: 0x24 }
  - { offsetInCU: 0x17A40, offset: 0x17A40, size: 0x8, addend: 0x0, symName: __ZNSt3__122__compressed_pair_elemIPdLi0ELb0EE5__getB8ue170006Ev, symObjAddr: 0x84CC, symBinAddr: 0x10000C87C, symSize: 0x14 }
  - { offsetInCU: 0x17A65, offset: 0x17A65, size: 0x8, addend: 0x0, symName: __ZNKSt3__16vectorIdNS_9allocatorIdEEE31__annotate_contiguous_containerB8ue170006EPKvS5_S5_S5_, symObjAddr: 0x84E0, symBinAddr: 0x10000C890, symSize: 0x20 }
  - { offsetInCU: 0x17ABA, offset: 0x17ABA, size: 0x8, addend: 0x0, symName: __ZNKSt3__16vectorIdNS_9allocatorIdEEE4dataB8ue170006Ev, symObjAddr: 0x8500, symBinAddr: 0x10000C8B0, symSize: 0x28 }
  - { offsetInCU: 0x17ADF, offset: 0x17ADF, size: 0x8, addend: 0x0, symName: __ZNKSt3__16vectorIdNS_9allocatorIdEEE8capacityB8ue170006Ev, symObjAddr: 0x8528, symBinAddr: 0x10000C8D8, symSize: 0x40 }
  - { offsetInCU: 0x17B04, offset: 0x17B04, size: 0x8, addend: 0x0, symName: __ZNKSt3__16vectorIdNS_9allocatorIdEEE9__end_capB8ue170006Ev, symObjAddr: 0x857C, symBinAddr: 0x10000C92C, symSize: 0x28 }
  - { offsetInCU: 0x17B29, offset: 0x17B29, size: 0x8, addend: 0x0, symName: __ZNKSt3__117__compressed_pairIPdNS_9allocatorIdEEE5firstB8ue170006Ev, symObjAddr: 0x85A4, symBinAddr: 0x10000C954, symSize: 0x24 }
  - { offsetInCU: 0x17B4E, offset: 0x17B4E, size: 0x8, addend: 0x0, symName: __ZNKSt3__122__compressed_pair_elemIPdLi0ELb0EE5__getB8ue170006Ev, symObjAddr: 0x85C8, symBinAddr: 0x10000C978, symSize: 0x14 }
  - { offsetInCU: 0x17B8C, offset: 0x17B8C, size: 0x8, addend: 0x0, symName: __ZNSt3__16vectorIdNS_9allocatorIdEEE21_ConstructTransactionC1B8ue170006ERS3_m, symObjAddr: 0x85DC, symBinAddr: 0x10000C98C, symSize: 0x3C }
  - { offsetInCU: 0x17BD3, offset: 0x17BD3, size: 0x8, addend: 0x0, symName: __ZNSt3__116allocator_traitsINS_9allocatorIdEEE9constructB8ue170006IdJRKdEvEEvRS2_PT_DpOT0_, symObjAddr: 0x8618, symBinAddr: 0x10000C9C8, symSize: 0x34 }
  - { offsetInCU: 0x17C2A, offset: 0x17C2A, size: 0x8, addend: 0x0, symName: __ZNSt3__16vectorIdNS_9allocatorIdEEE21_ConstructTransactionD1B8ue170006Ev, symObjAddr: 0x864C, symBinAddr: 0x10000C9FC, symSize: 0x2C }
  - { offsetInCU: 0x17C53, offset: 0x17C53, size: 0x8, addend: 0x0, symName: __ZNSt3__16vectorIdNS_9allocatorIdEEE21_ConstructTransactionC2B8ue170006ERS3_m, symObjAddr: 0x8678, symBinAddr: 0x10000CA28, symSize: 0x44 }
  - { offsetInCU: 0x17C9A, offset: 0x17C9A, size: 0x8, addend: 0x0, symName: __ZNSt3__19allocatorIdE9constructB8ue170006IdJRKdEEEvPT_DpOT0_, symObjAddr: 0x86BC, symBinAddr: 0x10000CA6C, symSize: 0x28 }
  - { offsetInCU: 0x17CEF, offset: 0x17CEF, size: 0x8, addend: 0x0, symName: __ZNSt3__16vectorIdNS_9allocatorIdEEE21_ConstructTransactionD2B8ue170006Ev, symObjAddr: 0x86E4, symBinAddr: 0x10000CA94, symSize: 0x20 }
  - { offsetInCU: 0x17D18, offset: 0x17D18, size: 0x8, addend: 0x0, symName: __ZNSt3__128__exception_guard_exceptionsINS_6vectorIdNS_9allocatorIdEEE16__destroy_vectorEED2B8ue170006Ev, symObjAddr: 0x8704, symBinAddr: 0x10000CAB4, symSize: 0x48 }
  - { offsetInCU: 0x17D41, offset: 0x17D41, size: 0x8, addend: 0x0, symName: __ZNSt3__16vectorIdNS_9allocatorIdEEE16__destroy_vectorclB8ue170006Ev, symObjAddr: 0x874C, symBinAddr: 0x10000CAFC, symSize: 0x90 }
  - { offsetInCU: 0x17D66, offset: 0x17D66, size: 0x8, addend: 0x0, symName: __ZNSt3__16vectorIdNS_9allocatorIdEEE7__clearB8ue170006Ev, symObjAddr: 0x87DC, symBinAddr: 0x10000CB8C, symSize: 0x28 }
  - { offsetInCU: 0x17D8B, offset: 0x17D8B, size: 0x8, addend: 0x0, symName: __ZNKSt3__16vectorIdNS_9allocatorIdEEE17__annotate_deleteB8ue170006Ev, symObjAddr: 0x8804, symBinAddr: 0x10000CBB4, symSize: 0xB8 }
  - { offsetInCU: 0x17DB0, offset: 0x17DB0, size: 0x8, addend: 0x0, symName: __ZNSt3__116allocator_traitsINS_9allocatorIdEEE10deallocateB8ue170006ERS2_Pdm, symObjAddr: 0x88BC, symBinAddr: 0x10000CC6C, symSize: 0x34 }
  - { offsetInCU: 0x17DF2, offset: 0x17DF2, size: 0x8, addend: 0x0, symName: __ZNSt3__16vectorIdNS_9allocatorIdEEE22__base_destruct_at_endB8ue170006EPd, symObjAddr: 0x88F0, symBinAddr: 0x10000CCA0, symSize: 0xA0 }
  - { offsetInCU: 0x17E35, offset: 0x17E35, size: 0x8, addend: 0x0, symName: __ZNSt3__116allocator_traitsINS_9allocatorIdEEE7destroyB8ue170006IdvEEvRS2_PT_, symObjAddr: 0x8990, symBinAddr: 0x10000CD40, symSize: 0x2C }
  - { offsetInCU: 0x17E72, offset: 0x17E72, size: 0x8, addend: 0x0, symName: __ZNSt3__19allocatorIdE7destroyB8ue170006EPd, symObjAddr: 0x89BC, symBinAddr: 0x10000CD6C, symSize: 0x14 }
  - { offsetInCU: 0x17EA5, offset: 0x17EA5, size: 0x8, addend: 0x0, symName: __ZNSt3__19allocatorIdE10deallocateB8ue170006EPdm, symObjAddr: 0x89D0, symBinAddr: 0x10000CD80, symSize: 0x70 }
  - { offsetInCU: 0x17EE6, offset: 0x17EE6, size: 0x8, addend: 0x0, symName: __ZNSt3__16vectorIdNS_9allocatorIdEEED2B8ue170006Ev, symObjAddr: 0x8A40, symBinAddr: 0x10000CDF0, symSize: 0x3C }
  - { offsetInCU: 0x17F0F, offset: 0x17F0F, size: 0x8, addend: 0x0, symName: __ZN6matrixIdEC2ERKS0_, symObjAddr: 0x8A7C, symBinAddr: 0x10000CE2C, symSize: 0x74 }
  - { offsetInCU: 0x17F47, offset: 0x17F47, size: 0x8, addend: 0x0, symName: __ZNSt3__16vectorINS0_IdNS_9allocatorIdEEEENS1_IS3_EEEC1B8ue170006Ev, symObjAddr: 0x8AF0, symBinAddr: 0x10000CEA0, symSize: 0x2C }
  - { offsetInCU: 0x17F70, offset: 0x17F70, size: 0x8, addend: 0x0, symName: __ZN6matrixIdE4copyERKS0_, symObjAddr: 0x8B1C, symBinAddr: 0x10000CECC, symSize: 0xEC }
  - { offsetInCU: 0x17FE0, offset: 0x17FE0, size: 0x8, addend: 0x0, symName: __ZNSt3__16vectorINS0_IdNS_9allocatorIdEEEENS1_IS3_EEEC2B8ue170006Ev, symObjAddr: 0x8C08, symBinAddr: 0x10000CFB8, symSize: 0x44 }
  - { offsetInCU: 0x18009, offset: 0x18009, size: 0x8, addend: 0x0, symName: __ZNSt3__117__compressed_pairIPNS_6vectorIdNS_9allocatorIdEEEENS2_IS4_EEEC1B8ue170006IDnNS_18__default_init_tagEEEOT_OT0_, symObjAddr: 0x8C4C, symBinAddr: 0x10000CFFC, symSize: 0x3C }
  - { offsetInCU: 0x18060, offset: 0x18060, size: 0x8, addend: 0x0, symName: __ZNSt3__117__compressed_pairIPNS_6vectorIdNS_9allocatorIdEEEENS2_IS4_EEEC2B8ue170006IDnNS_18__default_init_tagEEEOT_OT0_, symObjAddr: 0x8C88, symBinAddr: 0x10000D038, symSize: 0x40 }
  - { offsetInCU: 0x180B7, offset: 0x180B7, size: 0x8, addend: 0x0, symName: __ZNSt3__122__compressed_pair_elemIPNS_6vectorIdNS_9allocatorIdEEEELi0ELb0EEC2B8ue170006IDnvEEOT_, symObjAddr: 0x8CC8, symBinAddr: 0x10000D078, symSize: 0x1C }
  - { offsetInCU: 0x180F8, offset: 0x180F8, size: 0x8, addend: 0x0, symName: __ZNSt3__122__compressed_pair_elemINS_9allocatorINS_6vectorIdNS1_IdEEEEEELi1ELb1EEC2B8ue170006ENS_18__default_init_tagE, symObjAddr: 0x8CE4, symBinAddr: 0x10000D094, symSize: 0x2C }
  - { offsetInCU: 0x1812B, offset: 0x1812B, size: 0x8, addend: 0x0, symName: __ZNSt3__19allocatorINS_6vectorIdNS0_IdEEEEEC2B8ue170006Ev, symObjAddr: 0x8D10, symBinAddr: 0x10000D0C0, symSize: 0x2C }
  - { offsetInCU: 0x18154, offset: 0x18154, size: 0x8, addend: 0x0, symName: __ZNSt3__116__non_trivial_ifILb1ENS_9allocatorINS_6vectorIdNS1_IdEEEEEEEC2B8ue170006Ev, symObjAddr: 0x8D3C, symBinAddr: 0x10000D0EC, symSize: 0x14 }
  - { offsetInCU: 0x1817D, offset: 0x1817D, size: 0x8, addend: 0x0, symName: __ZN6matrixIdE4initEii, symObjAddr: 0x8D50, symBinAddr: 0x10000D100, symSize: 0xB0 }
  - { offsetInCU: 0x181DE, offset: 0x181DE, size: 0x8, addend: 0x0, symName: __ZNKSt3__16vectorINS0_IdNS_9allocatorIdEEEENS1_IS3_EEEixB8ue170006Em, symObjAddr: 0x8E00, symBinAddr: 0x10000D1B0, symSize: 0x2C }
  - { offsetInCU: 0x18214, offset: 0x18214, size: 0x8, addend: 0x0, symName: __ZNKSt3__16vectorIdNS_9allocatorIdEEEixB8ue170006Em, symObjAddr: 0x8E2C, symBinAddr: 0x10000D1DC, symSize: 0x24 }
  - { offsetInCU: 0x1824A, offset: 0x1824A, size: 0x8, addend: 0x0, symName: __ZNSt3__16vectorIdNS_9allocatorIdEEEC1B8ue170006Ev, symObjAddr: 0x8E50, symBinAddr: 0x10000D200, symSize: 0x2C }
  - { offsetInCU: 0x18272, offset: 0x18272, size: 0x8, addend: 0x0, symName: __ZNSt3__16vectorIdNS_9allocatorIdEEE6assignEmRKd, symObjAddr: 0x8E7C, symBinAddr: 0x10000D22C, symSize: 0x108 }
  - { offsetInCU: 0x182D4, offset: 0x182D4, size: 0x8, addend: 0x0, symName: __ZNSt3__16vectorINS0_IdNS_9allocatorIdEEEENS1_IS3_EEE6assignEmRKS3_, symObjAddr: 0x8F84, symBinAddr: 0x10000D334, symSize: 0x110 }
  - { offsetInCU: 0x18337, offset: 0x18337, size: 0x8, addend: 0x0, symName: __ZNSt3__16vectorIdNS_9allocatorIdEEEC2B8ue170006Ev, symObjAddr: 0x9094, symBinAddr: 0x10000D444, symSize: 0x44 }
  - { offsetInCU: 0x18360, offset: 0x18360, size: 0x8, addend: 0x0, symName: __ZNSt3__16vectorIdNS_9allocatorIdEEE17__destruct_at_endB8ue170006EPd, symObjAddr: 0x911C, symBinAddr: 0x10000D4CC, symSize: 0x4C }
  - { offsetInCU: 0x183A2, offset: 0x183A2, size: 0x8, addend: 0x0, symName: __ZNSt3__16vectorIdNS_9allocatorIdEEE13__vdeallocateEv, symObjAddr: 0x9168, symBinAddr: 0x10000D518, symSize: 0x94 }
  - { offsetInCU: 0x183C8, offset: 0x183C8, size: 0x8, addend: 0x0, symName: __ZNKSt3__16vectorIdNS_9allocatorIdEEE11__recommendB8ue170006Em, symObjAddr: 0x91FC, symBinAddr: 0x10000D5AC, symSize: 0xB4 }
  - { offsetInCU: 0x1841C, offset: 0x1841C, size: 0x8, addend: 0x0, symName: __ZNKSt3__16vectorIdNS_9allocatorIdEEE17__annotate_shrinkB8ue170006Em, symObjAddr: 0x9328, symBinAddr: 0x10000D6D8, symSize: 0xB4 }
  - { offsetInCU: 0x18450, offset: 0x18450, size: 0x8, addend: 0x0, symName: __ZNSt3__16vectorIdNS_9allocatorIdEEE5clearB8ue170006Ev, symObjAddr: 0x93DC, symBinAddr: 0x10000D78C, symSize: 0x44 }
  - { offsetInCU: 0x18483, offset: 0x18483, size: 0x8, addend: 0x0, symName: __ZNSt3__16vectorINS0_IdNS_9allocatorIdEEEENS1_IS3_EEE18__construct_at_endEmRKS3_, symObjAddr: 0x94E4, symBinAddr: 0x10000D894, symSize: 0xD8 }
  - { offsetInCU: 0x18504, offset: 0x18504, size: 0x8, addend: 0x0, symName: __ZNSt3__16vectorINS0_IdNS_9allocatorIdEEEENS1_IS3_EEE17__destruct_at_endB8ue170006EPS3_, symObjAddr: 0x95BC, symBinAddr: 0x10000D96C, symSize: 0x4C }
  - { offsetInCU: 0x18546, offset: 0x18546, size: 0x8, addend: 0x0, symName: __ZNSt3__16vectorINS0_IdNS_9allocatorIdEEEENS1_IS3_EEE13__vdeallocateEv, symObjAddr: 0x9608, symBinAddr: 0x10000D9B8, symSize: 0x94 }
  - { offsetInCU: 0x1856D, offset: 0x1856D, size: 0x8, addend: 0x0, symName: __ZNSt3__16vectorINS0_IdNS_9allocatorIdEEEENS1_IS3_EEE11__vallocateB8ue170006Em, symObjAddr: 0x969C, symBinAddr: 0x10000DA4C, symSize: 0xB4 }
  - { offsetInCU: 0x185AF, offset: 0x185AF, size: 0x8, addend: 0x0, symName: __ZNKSt3__16vectorINS0_IdNS_9allocatorIdEEEENS1_IS3_EEE11__recommendB8ue170006Em, symObjAddr: 0x9750, symBinAddr: 0x10000DB00, symSize: 0xB4 }
  - { offsetInCU: 0x18602, offset: 0x18602, size: 0x8, addend: 0x0, symName: __ZNSt3__16vectorIdNS_9allocatorIdEEEaSB8ue170006ERKS3_, symObjAddr: 0x9870, symBinAddr: 0x10000DC20, symSize: 0x68 }
  - { offsetInCU: 0x18638, offset: 0x18638, size: 0x8, addend: 0x0, symName: __ZNSt3__16vectorIdNS_9allocatorIdEEE19__copy_assign_allocB8ue170006ERKS3_, symObjAddr: 0x98D8, symBinAddr: 0x10000DC88, symSize: 0x2C }
  - { offsetInCU: 0x1866B, offset: 0x1866B, size: 0x8, addend: 0x0, symName: __ZNSt3__16vectorIdNS_9allocatorIdEEE6assignIPdLi0EEEvT_S6_, symObjAddr: 0x9904, symBinAddr: 0x10000DCB4, symSize: 0x5C }
  - { offsetInCU: 0x186BF, offset: 0x186BF, size: 0x8, addend: 0x0, symName: __ZNSt3__16vectorIdNS_9allocatorIdEEE19__copy_assign_allocB8ue170006ERKS3_NS_17integral_constantIbLb0EEE, symObjAddr: 0x9960, symBinAddr: 0x10000DD10, symSize: 0x14 }
  - { offsetInCU: 0x186FB, offset: 0x186FB, size: 0x8, addend: 0x0, symName: __ZNSt3__16vectorIdNS_9allocatorIdEEE18__assign_with_sizeB8ue170006IPdS5_EEvT_T0_l, symObjAddr: 0x9974, symBinAddr: 0x10000DD24, symSize: 0x164 }
  - { offsetInCU: 0x187AB, offset: 0x187AB, size: 0x8, addend: 0x0, symName: __ZNSt3__16vectorIdNS_9allocatorIdEEE18__construct_at_endIPdS5_EEvT_T0_m, symObjAddr: 0x9B78, symBinAddr: 0x10000DF28, symSize: 0x94 }
  - { offsetInCU: 0x18839, offset: 0x18839, size: 0x8, addend: 0x0, symName: __ZNSt3__14pairIPdS1_EC1B8ue170006ERKS1_S4_, symObjAddr: 0x9F4C, symBinAddr: 0x10000E2FC, symSize: 0x3C }
  - { offsetInCU: 0x1887E, offset: 0x1887E, size: 0x8, addend: 0x0, symName: __ZNSt3__14pairIPdS1_EC2B8ue170006ERKS1_S4_, symObjAddr: 0x9F88, symBinAddr: 0x10000E338, symSize: 0x34 }
  - { offsetInCU: 0x188C3, offset: 0x188C3, size: 0x8, addend: 0x0, symName: __ZNSt3__129_AllocatorDestroyRangeReverseINS_9allocatorIdEEPdEC1B8ue170006ERS2_RS3_S6_, symObjAddr: 0xA008, symBinAddr: 0x10000E3B8, symSize: 0x44 }
  - { offsetInCU: 0x18919, offset: 0x18919, size: 0x8, addend: 0x0, symName: __ZNSt3__116allocator_traitsINS_9allocatorIdEEE9constructB8ue170006IdJRdEvEEvRS2_PT_DpOT0_, symObjAddr: 0xA04C, symBinAddr: 0x10000E3FC, symSize: 0x34 }
  - { offsetInCU: 0x18970, offset: 0x18970, size: 0x8, addend: 0x0, symName: __ZNSt3__128__exception_guard_exceptionsINS_29_AllocatorDestroyRangeReverseINS_9allocatorIdEEPdEEE10__completeB8ue170006Ev, symObjAddr: 0xA080, symBinAddr: 0x10000E430, symSize: 0x1C }
  - { offsetInCU: 0x18995, offset: 0x18995, size: 0x8, addend: 0x0, symName: __ZNSt3__128__exception_guard_exceptionsINS_29_AllocatorDestroyRangeReverseINS_9allocatorIdEEPdEEED1B8ue170006Ev, symObjAddr: 0xA09C, symBinAddr: 0x10000E44C, symSize: 0x2C }
  - { offsetInCU: 0x189BE, offset: 0x189BE, size: 0x8, addend: 0x0, symName: __ZNSt3__128__exception_guard_exceptionsINS_29_AllocatorDestroyRangeReverseINS_9allocatorIdEEPdEEEC1B8ue170006ES5_, symObjAddr: 0xA0C8, symBinAddr: 0x10000E478, symSize: 0x34 }
  - { offsetInCU: 0x189F6, offset: 0x189F6, size: 0x8, addend: 0x0, symName: __ZNSt3__128__exception_guard_exceptionsINS_29_AllocatorDestroyRangeReverseINS_9allocatorIdEEPdEEEC2B8ue170006ES5_, symObjAddr: 0xA0FC, symBinAddr: 0x10000E4AC, symSize: 0x30 }
  - { offsetInCU: 0x18A2E, offset: 0x18A2E, size: 0x8, addend: 0x0, symName: __ZNSt3__129_AllocatorDestroyRangeReverseINS_9allocatorIdEEPdEC2B8ue170006ERS2_RS3_S6_, symObjAddr: 0xA12C, symBinAddr: 0x10000E4DC, symSize: 0x38 }
  - { offsetInCU: 0x18A84, offset: 0x18A84, size: 0x8, addend: 0x0, symName: __ZNSt3__19allocatorIdE9constructB8ue170006IdJRdEEEvPT_DpOT0_, symObjAddr: 0xA164, symBinAddr: 0x10000E514, symSize: 0x28 }
  - { offsetInCU: 0x18AD9, offset: 0x18AD9, size: 0x8, addend: 0x0, symName: __ZNSt3__128__exception_guard_exceptionsINS_29_AllocatorDestroyRangeReverseINS_9allocatorIdEEPdEEED2B8ue170006Ev, symObjAddr: 0xA18C, symBinAddr: 0x10000E53C, symSize: 0x48 }
  - { offsetInCU: 0x18B02, offset: 0x18B02, size: 0x8, addend: 0x0, symName: __ZNKSt3__129_AllocatorDestroyRangeReverseINS_9allocatorIdEEPdEclB8ue170006Ev, symObjAddr: 0xA1D4, symBinAddr: 0x10000E584, symSize: 0x68 }
  - { offsetInCU: 0x18B27, offset: 0x18B27, size: 0x8, addend: 0x0, symName: __ZNSt3__116reverse_iteratorIPdEC1B8ue170006ES1_, symObjAddr: 0xA2AC, symBinAddr: 0x10000E65C, symSize: 0x34 }
  - { offsetInCU: 0x18B5E, offset: 0x18B5E, size: 0x8, addend: 0x0, symName: __ZNSt3__116reverse_iteratorIPdEppB8ue170006Ev, symObjAddr: 0xA34C, symBinAddr: 0x10000E6FC, symSize: 0x20 }
  - { offsetInCU: 0x18B83, offset: 0x18B83, size: 0x8, addend: 0x0, symName: __ZNKSt3__116reverse_iteratorIPdE4baseB8ue170006Ev, symObjAddr: 0xA36C, symBinAddr: 0x10000E71C, symSize: 0x18 }
  - { offsetInCU: 0x18BAD, offset: 0x18BAD, size: 0x8, addend: 0x0, symName: __ZNSt3__119__to_address_helperINS_16reverse_iteratorIPdEEvE6__callB8ue170006ERKS3_, symObjAddr: 0xA384, symBinAddr: 0x10000E734, symSize: 0x4C }
  - { offsetInCU: 0x18BD0, offset: 0x18BD0, size: 0x8, addend: 0x0, symName: __ZNKSt3__116reverse_iteratorIPdEptB8ue170006Ev, symObjAddr: 0xA3D0, symBinAddr: 0x10000E780, symSize: 0x24 }
  - { offsetInCU: 0x18BF5, offset: 0x18BF5, size: 0x8, addend: 0x0, symName: __ZNKSt3__116reverse_iteratorIPdEdeB8ue170006Ev, symObjAddr: 0xA3F4, symBinAddr: 0x10000E7A4, symSize: 0x28 }
  - { offsetInCU: 0x18C28, offset: 0x18C28, size: 0x8, addend: 0x0, symName: __ZNSt3__116reverse_iteratorIPdEC2B8ue170006ES1_, symObjAddr: 0xA41C, symBinAddr: 0x10000E7CC, symSize: 0x28 }
  - { offsetInCU: 0x18C5F, offset: 0x18C5F, size: 0x8, addend: 0x0, symName: __ZNSt3__118__unwrap_iter_implIPdLb1EE8__unwrapB8ue170006ES1_, symObjAddr: 0xA444, symBinAddr: 0x10000E7F4, symSize: 0x24 }
  - { offsetInCU: 0x18C82, offset: 0x18C82, size: 0x8, addend: 0x0, symName: __ZNSt3__118__unwrap_iter_implIPdLb1EE8__rewrapB8ue170006ES1_S1_, symObjAddr: 0xA468, symBinAddr: 0x10000E818, symSize: 0x50 }
  - { offsetInCU: 0x18CBD, offset: 0x18CBD, size: 0x8, addend: 0x0, symName: __ZNKSt3__114__copy_trivialclB8ue170006IddLi0EEENS_4pairIPT_PT0_EES4_S4_S6_, symObjAddr: 0xA5B0, symBinAddr: 0x10000E960, symSize: 0x48 }
  - { offsetInCU: 0x18D3D, offset: 0x18D3D, size: 0x8, addend: 0x0, symName: __ZNSt3__16vectorINS0_IdNS_9allocatorIdEEEENS1_IS3_EEE21_ConstructTransactionC1B8ue170006ERS5_m, symObjAddr: 0xA7A4, symBinAddr: 0x10000EB54, symSize: 0x3C }
  - { offsetInCU: 0x18D84, offset: 0x18D84, size: 0x8, addend: 0x0, symName: __ZNSt3__116allocator_traitsINS_9allocatorINS_6vectorIdNS1_IdEEEEEEE9constructB8ue170006IS4_JRKS4_EvEEvRS5_PT_DpOT0_, symObjAddr: 0xA7E0, symBinAddr: 0x10000EB90, symSize: 0x34 }
  - { offsetInCU: 0x18DDB, offset: 0x18DDB, size: 0x8, addend: 0x0, symName: __ZNSt3__16vectorINS0_IdNS_9allocatorIdEEEENS1_IS3_EEE21_ConstructTransactionD1B8ue170006Ev, symObjAddr: 0xA814, symBinAddr: 0x10000EBC4, symSize: 0x2C }
  - { offsetInCU: 0x18E04, offset: 0x18E04, size: 0x8, addend: 0x0, symName: __ZNSt3__16vectorINS0_IdNS_9allocatorIdEEEENS1_IS3_EEE21_ConstructTransactionC2B8ue170006ERS5_m, symObjAddr: 0xA840, symBinAddr: 0x10000EBF0, symSize: 0x4C }
  - { offsetInCU: 0x18E4B, offset: 0x18E4B, size: 0x8, addend: 0x0, symName: __ZNSt3__19allocatorINS_6vectorIdNS0_IdEEEEE9constructB8ue170006IS3_JRKS3_EEEvPT_DpOT0_, symObjAddr: 0xA88C, symBinAddr: 0x10000EC3C, symSize: 0x30 }
  - { offsetInCU: 0x18EA0, offset: 0x18EA0, size: 0x8, addend: 0x0, symName: __ZNSt3__16vectorIdNS_9allocatorIdEEEC1ERKS3_, symObjAddr: 0xA8BC, symBinAddr: 0x10000EC6C, symSize: 0x34 }
  - { offsetInCU: 0x18EDA, offset: 0x18EDA, size: 0x8, addend: 0x0, symName: __ZNSt3__16vectorIdNS_9allocatorIdEEEC2ERKS3_, symObjAddr: 0xA8F0, symBinAddr: 0x10000ECA0, symSize: 0x94 }
  - { offsetInCU: 0x18F14, offset: 0x18F14, size: 0x8, addend: 0x0, symName: __ZNSt3__116allocator_traitsINS_9allocatorIdEEE37select_on_container_copy_constructionB8ue170006IS2_vvEES2_RKS2_, symObjAddr: 0xA984, symBinAddr: 0x10000ED34, symSize: 0x10 }
  - { offsetInCU: 0x18F48, offset: 0x18F48, size: 0x8, addend: 0x0, symName: __ZNSt3__117__compressed_pairIPdNS_9allocatorIdEEEC1B8ue170006IDnS3_EEOT_OT0_, symObjAddr: 0xA994, symBinAddr: 0x10000ED44, symSize: 0x3C }
  - { offsetInCU: 0x18F9F, offset: 0x18F9F, size: 0x8, addend: 0x0, symName: __ZNSt3__16vectorIdNS_9allocatorIdEEE16__init_with_sizeB8ue170006IPdS5_EEvT_T0_m, symObjAddr: 0xA9D0, symBinAddr: 0x10000ED80, symSize: 0xC0 }
  - { offsetInCU: 0x19012, offset: 0x19012, size: 0x8, addend: 0x0, symName: __ZNSt3__117__compressed_pairIPdNS_9allocatorIdEEEC2B8ue170006IDnS3_EEOT_OT0_, symObjAddr: 0xAA90, symBinAddr: 0x10000EE40, symSize: 0x44 }
  - { offsetInCU: 0x19069, offset: 0x19069, size: 0x8, addend: 0x0, symName: __ZNSt3__122__compressed_pair_elemINS_9allocatorIdEELi1ELb1EEC2B8ue170006IS2_vEEOT_, symObjAddr: 0xAAD4, symBinAddr: 0x10000EE84, symSize: 0x18 }
  - { offsetInCU: 0x190AA, offset: 0x190AA, size: 0x8, addend: 0x0, symName: __ZNSt3__16vectorINS0_IdNS_9allocatorIdEEEENS1_IS3_EEE21_ConstructTransactionD2B8ue170006Ev, symObjAddr: 0xAAEC, symBinAddr: 0x10000EE9C, symSize: 0x20 }
  - { offsetInCU: 0x190D3, offset: 0x190D3, size: 0x8, addend: 0x0, symName: __ZNKSt3__16vectorINS0_IdNS_9allocatorIdEEEENS1_IS3_EEE17__annotate_shrinkB8ue170006Em, symObjAddr: 0xAB0C, symBinAddr: 0x10000EEBC, symSize: 0xD0 }
  - { offsetInCU: 0x19107, offset: 0x19107, size: 0x8, addend: 0x0, symName: __ZNSt3__16vectorINS0_IdNS_9allocatorIdEEEENS1_IS3_EEE5clearB8ue170006Ev, symObjAddr: 0xABDC, symBinAddr: 0x10000EF8C, symSize: 0x44 }
  - { offsetInCU: 0x1913B, offset: 0x1913B, size: 0x8, addend: 0x0, symName: __ZNSt3__16vectorINS0_IdNS_9allocatorIdEEEENS1_IS3_EEE9__end_capB8ue170006Ev, symObjAddr: 0xAC20, symBinAddr: 0x10000EFD0, symSize: 0x28 }
  - { offsetInCU: 0x19160, offset: 0x19160, size: 0x8, addend: 0x0, symName: __ZNSt3__117__compressed_pairIPNS_6vectorIdNS_9allocatorIdEEEENS2_IS4_EEE5firstB8ue170006Ev, symObjAddr: 0xAC48, symBinAddr: 0x10000EFF8, symSize: 0x24 }
  - { offsetInCU: 0x19185, offset: 0x19185, size: 0x8, addend: 0x0, symName: __ZNSt3__122__compressed_pair_elemIPNS_6vectorIdNS_9allocatorIdEEEELi0ELb0EE5__getB8ue170006Ev, symObjAddr: 0xAC6C, symBinAddr: 0x10000F01C, symSize: 0x14 }
  - { offsetInCU: 0x191A9, offset: 0x191A9, size: 0x8, addend: 0x0, symName: __ZNKSt3__16vectorINS0_IdNS_9allocatorIdEEEENS1_IS3_EEE8max_sizeEv, symObjAddr: 0xAC80, symBinAddr: 0x10000F030, symSize: 0x74 }
  - { offsetInCU: 0x191D0, offset: 0x191D0, size: 0x8, addend: 0x0, symName: __ZNKSt3__16vectorINS0_IdNS_9allocatorIdEEEENS1_IS3_EEE20__throw_length_errorB8ue170006Ev, symObjAddr: 0xACF4, symBinAddr: 0x10000F0A4, symSize: 0x1C }
  - { offsetInCU: 0x191F5, offset: 0x191F5, size: 0x8, addend: 0x0, symName: __ZNKSt3__16vectorINS0_IdNS_9allocatorIdEEEENS1_IS3_EEE14__annotate_newB8ue170006Em, symObjAddr: 0xAD50, symBinAddr: 0x10000F100, symSize: 0xC8 }
  - { offsetInCU: 0x19233, offset: 0x19233, size: 0x8, addend: 0x0, symName: __ZNSt3__116allocator_traitsINS_9allocatorINS_6vectorIdNS1_IdEEEEEEE8max_sizeB8ue170006IS5_vEEmRKS5_, symObjAddr: 0xAE18, symBinAddr: 0x10000F1C8, symSize: 0x24 }
  - { offsetInCU: 0x19261, offset: 0x19261, size: 0x8, addend: 0x0, symName: __ZNKSt3__16vectorINS0_IdNS_9allocatorIdEEEENS1_IS3_EEE7__allocB8ue170006Ev, symObjAddr: 0xAE3C, symBinAddr: 0x10000F1EC, symSize: 0x28 }
  - { offsetInCU: 0x19286, offset: 0x19286, size: 0x8, addend: 0x0, symName: __ZNKSt3__19allocatorINS_6vectorIdNS0_IdEEEEE8max_sizeB8ue170006Ev, symObjAddr: 0xAE64, symBinAddr: 0x10000F214, symSize: 0x18 }
  - { offsetInCU: 0x192AB, offset: 0x192AB, size: 0x8, addend: 0x0, symName: __ZNKSt3__117__compressed_pairIPNS_6vectorIdNS_9allocatorIdEEEENS2_IS4_EEE6secondB8ue170006Ev, symObjAddr: 0xAE7C, symBinAddr: 0x10000F22C, symSize: 0x24 }
  - { offsetInCU: 0x192D0, offset: 0x192D0, size: 0x8, addend: 0x0, symName: __ZNKSt3__122__compressed_pair_elemINS_9allocatorINS_6vectorIdNS1_IdEEEEEELi1ELb1EE5__getB8ue170006Ev, symObjAddr: 0xAEA0, symBinAddr: 0x10000F250, symSize: 0x14 }
  - { offsetInCU: 0x192F5, offset: 0x192F5, size: 0x8, addend: 0x0, symName: __ZNSt3__19allocatorINS_6vectorIdNS0_IdEEEEE8allocateB8ue170006Em, symObjAddr: 0xAEB4, symBinAddr: 0x10000F264, symSize: 0x8C }
  - { offsetInCU: 0x19328, offset: 0x19328, size: 0x8, addend: 0x0, symName: __ZNSt3__16vectorIdNS_9allocatorIdEEEC1Em, symObjAddr: 0xAF40, symBinAddr: 0x10000F2F0, symSize: 0x34 }
  - { offsetInCU: 0x19362, offset: 0x19362, size: 0x8, addend: 0x0, symName: __ZNSt3__16vectorINS0_IdNS_9allocatorIdEEEENS1_IS3_EEEC1EmRKS3_, symObjAddr: 0xAF74, symBinAddr: 0x10000F324, symSize: 0x3C }
  - { offsetInCU: 0x193AB, offset: 0x193AB, size: 0x8, addend: 0x0, symName: __ZN6matrixIdE3colEi, symObjAddr: 0xAFB0, symBinAddr: 0x10000F360, symSize: 0xFC }
  - { offsetInCU: 0x1940C, offset: 0x1940C, size: 0x8, addend: 0x0, symName: __ZNSt3__16vectorIdNS_9allocatorIdEEEaSB8ue170006EOS3_, symObjAddr: 0xB0AC, symBinAddr: 0x10000F45C, symSize: 0x34 }
  - { offsetInCU: 0x19441, offset: 0x19441, size: 0x8, addend: 0x0, symName: __ZmlIdET_RKNSt3__16vectorIS0_NS1_9allocatorIS0_EEEES7_, symObjAddr: 0xB0E0, symBinAddr: 0x10000F490, symSize: 0xD4 }
  - { offsetInCU: 0x194C3, offset: 0x194C3, size: 0x8, addend: 0x0, symName: __ZmiIdENSt3__16vectorIT_NS0_9allocatorIS2_EEEERKS5_S7_, symObjAddr: 0xB1B4, symBinAddr: 0x10000F564, symSize: 0x134 }
  - { offsetInCU: 0x19546, offset: 0x19546, size: 0x8, addend: 0x0, symName: __ZmlIdENSt3__16vectorIT_NS0_9allocatorIS2_EEEES2_RKS5_, symObjAddr: 0xB2E8, symBinAddr: 0x10000F698, symSize: 0xFC }
  - { offsetInCU: 0x195C9, offset: 0x195C9, size: 0x8, addend: 0x0, symName: __Z7unitizeIdENSt3__16vectorIdNS0_9allocatorIdEEEERKNS1_IT_NS2_IS5_EEEE, symObjAddr: 0xB3E4, symBinAddr: 0x10000F794, symSize: 0xFC }
  - { offsetInCU: 0x1964D, offset: 0x1964D, size: 0x8, addend: 0x0, symName: __ZNSt3__16vectorIdNS_9allocatorIdEEEC2Em, symObjAddr: 0xB4E0, symBinAddr: 0x10000F890, symSize: 0xDC }
  - { offsetInCU: 0x1969B, offset: 0x1969B, size: 0x8, addend: 0x0, symName: __ZNSt3__16vectorIdNS_9allocatorIdEEE18__construct_at_endEm, symObjAddr: 0xB5BC, symBinAddr: 0x10000F96C, symSize: 0xD0 }
  - { offsetInCU: 0x1970D, offset: 0x1970D, size: 0x8, addend: 0x0, symName: __ZNSt3__116allocator_traitsINS_9allocatorIdEEE9constructB8ue170006IdJEvEEvRS2_PT_DpOT0_, symObjAddr: 0xB68C, symBinAddr: 0x10000FA3C, symSize: 0x2C }
  - { offsetInCU: 0x1974F, offset: 0x1974F, size: 0x8, addend: 0x0, symName: __ZNSt3__19allocatorIdE9constructB8ue170006IdJEEEvPT_DpOT0_, symObjAddr: 0xB6B8, symBinAddr: 0x10000FA68, symSize: 0x20 }
  - { offsetInCU: 0x19790, offset: 0x19790, size: 0x8, addend: 0x0, symName: __ZNSt3__16vectorINS0_IdNS_9allocatorIdEEEENS1_IS3_EEEC2EmRKS3_, symObjAddr: 0xB6D8, symBinAddr: 0x10000FA88, symSize: 0xE4 }
  - { offsetInCU: 0x197EE, offset: 0x197EE, size: 0x8, addend: 0x0, symName: __ZNSt3__128__exception_guard_exceptionsINS_6vectorINS1_IdNS_9allocatorIdEEEENS2_IS4_EEE16__destroy_vectorEE10__completeB8ue170006Ev, symObjAddr: 0xB7FC, symBinAddr: 0x10000FBAC, symSize: 0x1C }
  - { offsetInCU: 0x19813, offset: 0x19813, size: 0x8, addend: 0x0, symName: __ZNSt3__128__exception_guard_exceptionsINS_6vectorINS1_IdNS_9allocatorIdEEEENS2_IS4_EEE16__destroy_vectorEED1B8ue170006Ev, symObjAddr: 0xB818, symBinAddr: 0x10000FBC8, symSize: 0x2C }
  - { offsetInCU: 0x1983C, offset: 0x1983C, size: 0x8, addend: 0x0, symName: __ZNSt3__128__exception_guard_exceptionsINS_6vectorINS1_IdNS_9allocatorIdEEEENS2_IS4_EEE16__destroy_vectorEEC1B8ue170006ES7_, symObjAddr: 0xB844, symBinAddr: 0x10000FBF4, symSize: 0x34 }
  - { offsetInCU: 0x19873, offset: 0x19873, size: 0x8, addend: 0x0, symName: __ZNSt3__128__exception_guard_exceptionsINS_6vectorINS1_IdNS_9allocatorIdEEEENS2_IS4_EEE16__destroy_vectorEEC2B8ue170006ES7_, symObjAddr: 0xB878, symBinAddr: 0x10000FC28, symSize: 0x24 }
  - { offsetInCU: 0x198AA, offset: 0x198AA, size: 0x8, addend: 0x0, symName: __ZNSt3__128__exception_guard_exceptionsINS_6vectorINS1_IdNS_9allocatorIdEEEENS2_IS4_EEE16__destroy_vectorEED2B8ue170006Ev, symObjAddr: 0xB89C, symBinAddr: 0x10000FC4C, symSize: 0x48 }
  - { offsetInCU: 0x198D2, offset: 0x198D2, size: 0x8, addend: 0x0, symName: __ZNSt3__16vectorIdNS_9allocatorIdEEE13__move_assignERS3_NS_17integral_constantIbLb1EEE, symObjAddr: 0xB8E4, symBinAddr: 0x10000FC94, symSize: 0x94 }
  - { offsetInCU: 0x19914, offset: 0x19914, size: 0x8, addend: 0x0, symName: __ZNSt3__16vectorIdNS_9allocatorIdEEE19__move_assign_allocB8ue170006ERS3_, symObjAddr: 0xB978, symBinAddr: 0x10000FD28, symSize: 0x2C }
  - { offsetInCU: 0x19948, offset: 0x19948, size: 0x8, addend: 0x0, symName: __ZNSt3__16vectorIdNS_9allocatorIdEEE19__move_assign_allocB8ue170006ERS3_NS_17integral_constantIbLb1EEE, symObjAddr: 0xB9A4, symBinAddr: 0x10000FD54, symSize: 0x38 }
  - { offsetInCU: 0x19987, offset: 0x19987, size: 0x8, addend: 0x0, symName: __Z4normIdEdRKNSt3__16vectorIT_NS0_9allocatorIS2_EEEE, symObjAddr: 0xB9DC, symBinAddr: 0x10000FD8C, symSize: 0x2C }
  - { offsetInCU: 0x199BE, offset: 0x199BE, size: 0x8, addend: 0x0, symName: __ZNSt3__16vectorINS0_IdNS_9allocatorIdEEEENS1_IS3_EEEaSB8ue170006ERKS5_, symObjAddr: 0xBA08, symBinAddr: 0x10000FDB8, symSize: 0x68 }
  - { offsetInCU: 0x199F4, offset: 0x199F4, size: 0x8, addend: 0x0, symName: __ZNSt3__16vectorINS0_IdNS_9allocatorIdEEEENS1_IS3_EEE19__copy_assign_allocB8ue170006ERKS5_, symObjAddr: 0xBA70, symBinAddr: 0x10000FE20, symSize: 0x2C }
  - { offsetInCU: 0x19A27, offset: 0x19A27, size: 0x8, addend: 0x0, symName: __ZNSt3__16vectorINS0_IdNS_9allocatorIdEEEENS1_IS3_EEE6assignIPS3_Li0EEEvT_S8_, symObjAddr: 0xBA9C, symBinAddr: 0x10000FE4C, symSize: 0x5C }
  - { offsetInCU: 0x19A7B, offset: 0x19A7B, size: 0x8, addend: 0x0, symName: __ZNSt3__16vectorINS0_IdNS_9allocatorIdEEEENS1_IS3_EEE19__copy_assign_allocB8ue170006ERKS5_NS_17integral_constantIbLb0EEE, symObjAddr: 0xBAF8, symBinAddr: 0x10000FEA8, symSize: 0x14 }
  - { offsetInCU: 0x19AB7, offset: 0x19AB7, size: 0x8, addend: 0x0, symName: __ZNSt3__16vectorINS0_IdNS_9allocatorIdEEEENS1_IS3_EEE18__assign_with_sizeB8ue170006IPS3_S7_EEvT_T0_l, symObjAddr: 0xBB0C, symBinAddr: 0x10000FEBC, symSize: 0x164 }
  - { offsetInCU: 0x19B67, offset: 0x19B67, size: 0x8, addend: 0x0, symName: __ZNSt3__16vectorINS0_IdNS_9allocatorIdEEEENS1_IS3_EEE18__construct_at_endIPS3_S7_EEvT_T0_m, symObjAddr: 0xBD10, symBinAddr: 0x1000100C0, symSize: 0x94 }
  - { offsetInCU: 0x19BF5, offset: 0x19BF5, size: 0x8, addend: 0x0, symName: __ZNSt3__14pairIPNS_6vectorIdNS_9allocatorIdEEEES5_EC1B8ue170006ERKS5_S8_, symObjAddr: 0xC0D8, symBinAddr: 0x100010488, symSize: 0x3C }
  - { offsetInCU: 0x19C3A, offset: 0x19C3A, size: 0x8, addend: 0x0, symName: __ZNSt3__14pairIPNS_6vectorIdNS_9allocatorIdEEEES5_EC2B8ue170006ERKS5_S8_, symObjAddr: 0xC114, symBinAddr: 0x1000104C4, symSize: 0x34 }
  - { offsetInCU: 0x19C7F, offset: 0x19C7F, size: 0x8, addend: 0x0, symName: __ZNSt3__129_AllocatorDestroyRangeReverseINS_9allocatorINS_6vectorIdNS1_IdEEEEEEPS4_EC1B8ue170006ERS5_RS6_S9_, symObjAddr: 0xC194, symBinAddr: 0x100010544, symSize: 0x44 }
  - { offsetInCU: 0x19CD5, offset: 0x19CD5, size: 0x8, addend: 0x0, symName: __ZNSt3__116allocator_traitsINS_9allocatorINS_6vectorIdNS1_IdEEEEEEE9constructB8ue170006IS4_JRS4_EvEEvRS5_PT_DpOT0_, symObjAddr: 0xC1D8, symBinAddr: 0x100010588, symSize: 0x34 }
  - { offsetInCU: 0x19D2C, offset: 0x19D2C, size: 0x8, addend: 0x0, symName: __ZNSt3__128__exception_guard_exceptionsINS_29_AllocatorDestroyRangeReverseINS_9allocatorINS_6vectorIdNS2_IdEEEEEEPS5_EEE10__completeB8ue170006Ev, symObjAddr: 0xC20C, symBinAddr: 0x1000105BC, symSize: 0x1C }
  - { offsetInCU: 0x19D51, offset: 0x19D51, size: 0x8, addend: 0x0, symName: __ZNSt3__128__exception_guard_exceptionsINS_29_AllocatorDestroyRangeReverseINS_9allocatorINS_6vectorIdNS2_IdEEEEEEPS5_EEED1B8ue170006Ev, symObjAddr: 0xC228, symBinAddr: 0x1000105D8, symSize: 0x2C }
  - { offsetInCU: 0x19D7A, offset: 0x19D7A, size: 0x8, addend: 0x0, symName: __ZNSt3__128__exception_guard_exceptionsINS_29_AllocatorDestroyRangeReverseINS_9allocatorINS_6vectorIdNS2_IdEEEEEEPS5_EEEC1B8ue170006ES8_, symObjAddr: 0xC254, symBinAddr: 0x100010604, symSize: 0x34 }
  - { offsetInCU: 0x19DB2, offset: 0x19DB2, size: 0x8, addend: 0x0, symName: __ZNSt3__128__exception_guard_exceptionsINS_29_AllocatorDestroyRangeReverseINS_9allocatorINS_6vectorIdNS2_IdEEEEEEPS5_EEEC2B8ue170006ES8_, symObjAddr: 0xC288, symBinAddr: 0x100010638, symSize: 0x30 }
  - { offsetInCU: 0x19DEA, offset: 0x19DEA, size: 0x8, addend: 0x0, symName: __ZNSt3__129_AllocatorDestroyRangeReverseINS_9allocatorINS_6vectorIdNS1_IdEEEEEEPS4_EC2B8ue170006ERS5_RS6_S9_, symObjAddr: 0xC2B8, symBinAddr: 0x100010668, symSize: 0x38 }
  - { offsetInCU: 0x19E40, offset: 0x19E40, size: 0x8, addend: 0x0, symName: __ZNSt3__19allocatorINS_6vectorIdNS0_IdEEEEE9constructB8ue170006IS3_JRS3_EEEvPT_DpOT0_, symObjAddr: 0xC2F0, symBinAddr: 0x1000106A0, symSize: 0x30 }
  - { offsetInCU: 0x19E95, offset: 0x19E95, size: 0x8, addend: 0x0, symName: __ZNSt3__128__exception_guard_exceptionsINS_29_AllocatorDestroyRangeReverseINS_9allocatorINS_6vectorIdNS2_IdEEEEEEPS5_EEED2B8ue170006Ev, symObjAddr: 0xC320, symBinAddr: 0x1000106D0, symSize: 0x48 }
  - { offsetInCU: 0x19EBE, offset: 0x19EBE, size: 0x8, addend: 0x0, symName: __ZNKSt3__129_AllocatorDestroyRangeReverseINS_9allocatorINS_6vectorIdNS1_IdEEEEEEPS4_EclB8ue170006Ev, symObjAddr: 0xC368, symBinAddr: 0x100010718, symSize: 0x68 }
  - { offsetInCU: 0x19EE3, offset: 0x19EE3, size: 0x8, addend: 0x0, symName: __ZNSt3__116reverse_iteratorIPNS_6vectorIdNS_9allocatorIdEEEEEC1B8ue170006ES5_, symObjAddr: 0xC440, symBinAddr: 0x1000107F0, symSize: 0x34 }
  - { offsetInCU: 0x19F1A, offset: 0x19F1A, size: 0x8, addend: 0x0, symName: __ZNSt3__116reverse_iteratorIPNS_6vectorIdNS_9allocatorIdEEEEEppB8ue170006Ev, symObjAddr: 0xC4E0, symBinAddr: 0x100010890, symSize: 0x20 }
  - { offsetInCU: 0x19F3F, offset: 0x19F3F, size: 0x8, addend: 0x0, symName: __ZNKSt3__116reverse_iteratorIPNS_6vectorIdNS_9allocatorIdEEEEE4baseB8ue170006Ev, symObjAddr: 0xC500, symBinAddr: 0x1000108B0, symSize: 0x18 }
  - { offsetInCU: 0x19F69, offset: 0x19F69, size: 0x8, addend: 0x0, symName: __ZNSt3__119__to_address_helperINS_16reverse_iteratorIPNS_6vectorIdNS_9allocatorIdEEEEEEvE6__callB8ue170006ERKS7_, symObjAddr: 0xC518, symBinAddr: 0x1000108C8, symSize: 0x4C }
  - { offsetInCU: 0x19F8C, offset: 0x19F8C, size: 0x8, addend: 0x0, symName: __ZNKSt3__116reverse_iteratorIPNS_6vectorIdNS_9allocatorIdEEEEEptB8ue170006Ev, symObjAddr: 0xC564, symBinAddr: 0x100010914, symSize: 0x24 }
  - { offsetInCU: 0x19FB1, offset: 0x19FB1, size: 0x8, addend: 0x0, symName: __ZNKSt3__116reverse_iteratorIPNS_6vectorIdNS_9allocatorIdEEEEEdeB8ue170006Ev, symObjAddr: 0xC588, symBinAddr: 0x100010938, symSize: 0x28 }
  - { offsetInCU: 0x19FE4, offset: 0x19FE4, size: 0x8, addend: 0x0, symName: __ZNSt3__116reverse_iteratorIPNS_6vectorIdNS_9allocatorIdEEEEEC2B8ue170006ES5_, symObjAddr: 0xC5B0, symBinAddr: 0x100010960, symSize: 0x28 }
  - { offsetInCU: 0x1A01B, offset: 0x1A01B, size: 0x8, addend: 0x0, symName: __ZNSt3__118__unwrap_iter_implIPNS_6vectorIdNS_9allocatorIdEEEELb1EE8__unwrapB8ue170006ES5_, symObjAddr: 0xC5D8, symBinAddr: 0x100010988, symSize: 0x24 }
  - { offsetInCU: 0x1A03E, offset: 0x1A03E, size: 0x8, addend: 0x0, symName: __ZNSt3__118__unwrap_iter_implIPNS_6vectorIdNS_9allocatorIdEEEELb1EE8__rewrapB8ue170006ES5_S5_, symObjAddr: 0xC5FC, symBinAddr: 0x1000109AC, symSize: 0x58 }
  - { offsetInCU: 0x1A079, offset: 0x1A079, size: 0x8, addend: 0x0, symName: __ZNKSt3__111__copy_loopINS_17_ClassicAlgPolicyEEclB8ue170006IPNS_6vectorIdNS_9allocatorIdEEEES8_S8_EENS_4pairIT_T1_EESA_T0_SB_, symObjAddr: 0xC74C, symBinAddr: 0x100010AFC, symSize: 0x88 }
  - { offsetInCU: 0x1A0E3, offset: 0x1A0E3, size: 0x8, addend: 0x0, symName: __ZN6matrixIdEC2Eii, symObjAddr: 0xC828, symBinAddr: 0x100010BD8, symSize: 0x7C }
  - { offsetInCU: 0x1A12A, offset: 0x1A12A, size: 0x8, addend: 0x0, symName: __ZN6matrixIdEC1Ev, symObjAddr: 0xC8A4, symBinAddr: 0x100010C54, symSize: 0x2C }
  - { offsetInCU: 0x1A153, offset: 0x1A153, size: 0x8, addend: 0x0, symName: __ZN6matrixIdEC2Ev, symObjAddr: 0xC8D0, symBinAddr: 0x100010C80, symSize: 0x38 }
  - { offsetInCU: 0x1A17C, offset: 0x1A17C, size: 0x8, addend: 0x0, symName: __ZNSt3__14pairI6matrixIdES2_EC1B8ue170006ERKS2_S5_, symObjAddr: 0xC908, symBinAddr: 0x100010CB8, symSize: 0x3C }
  - { offsetInCU: 0x1A1C1, offset: 0x1A1C1, size: 0x8, addend: 0x0, symName: __ZNSt3__14pairI6matrixIdES2_EC2B8ue170006ERKS2_S5_, symObjAddr: 0xC944, symBinAddr: 0x100010CF4, symSize: 0x78 }
  - { offsetInCU: 0x1A206, offset: 0x1A206, size: 0x8, addend: 0x0, symName: __ZNSt3__16vectorI6matrixI4fracENS_9allocatorIS3_EEEC2B8ue170006Ev, symObjAddr: 0xC9BC, symBinAddr: 0x100010D6C, symSize: 0x44 }
  - { offsetInCU: 0x1A22F, offset: 0x1A22F, size: 0x8, addend: 0x0, symName: __ZNSt3__117__compressed_pairIP6matrixI4fracENS_9allocatorIS3_EEEC1B8ue170006IDnNS_18__default_init_tagEEEOT_OT0_, symObjAddr: 0xCA00, symBinAddr: 0x100010DB0, symSize: 0x3C }
  - { offsetInCU: 0x1A286, offset: 0x1A286, size: 0x8, addend: 0x0, symName: __ZNSt3__117__compressed_pairIP6matrixI4fracENS_9allocatorIS3_EEEC2B8ue170006IDnNS_18__default_init_tagEEEOT_OT0_, symObjAddr: 0xCA3C, symBinAddr: 0x100010DEC, symSize: 0x40 }
  - { offsetInCU: 0x1A2DD, offset: 0x1A2DD, size: 0x8, addend: 0x0, symName: __ZNSt3__122__compressed_pair_elemIP6matrixI4fracELi0ELb0EEC2B8ue170006IDnvEEOT_, symObjAddr: 0xCA7C, symBinAddr: 0x100010E2C, symSize: 0x1C }
  - { offsetInCU: 0x1A31E, offset: 0x1A31E, size: 0x8, addend: 0x0, symName: __ZNSt3__122__compressed_pair_elemINS_9allocatorI6matrixI4fracEEELi1ELb1EEC2B8ue170006ENS_18__default_init_tagE, symObjAddr: 0xCA98, symBinAddr: 0x100010E48, symSize: 0x2C }
  - { offsetInCU: 0x1A351, offset: 0x1A351, size: 0x8, addend: 0x0, symName: __ZNSt3__19allocatorI6matrixI4fracEEC2B8ue170006Ev, symObjAddr: 0xCAC4, symBinAddr: 0x100010E74, symSize: 0x2C }
  - { offsetInCU: 0x1A37A, offset: 0x1A37A, size: 0x8, addend: 0x0, symName: __ZNSt3__116__non_trivial_ifILb1ENS_9allocatorI6matrixI4fracEEEEC2B8ue170006Ev, symObjAddr: 0xCAF0, symBinAddr: 0x100010EA0, symSize: 0x14 }
  - { offsetInCU: 0x1A3A3, offset: 0x1A3A3, size: 0x8, addend: 0x0, symName: __ZNSt3__16vectorI6matrixI4fracENS_9allocatorIS3_EEED2B8ue170006Ev, symObjAddr: 0xCB04, symBinAddr: 0x100010EB4, symSize: 0x3C }
  - { offsetInCU: 0x1A3CC, offset: 0x1A3CC, size: 0x8, addend: 0x0, symName: __ZNSt3__16vectorI6matrixI4fracENS_9allocatorIS3_EEE16__destroy_vectorC1B8ue170006ERS6_, symObjAddr: 0xCB40, symBinAddr: 0x100010EF0, symSize: 0x34 }
  - { offsetInCU: 0x1A404, offset: 0x1A404, size: 0x8, addend: 0x0, symName: __ZNSt3__16vectorI6matrixI4fracENS_9allocatorIS3_EEE16__destroy_vectorclB8ue170006Ev, symObjAddr: 0xCB74, symBinAddr: 0x100010F24, symSize: 0x90 }
  - { offsetInCU: 0x1A429, offset: 0x1A429, size: 0x8, addend: 0x0, symName: __ZNSt3__16vectorI6matrixI4fracENS_9allocatorIS3_EEE16__destroy_vectorC2B8ue170006ERS6_, symObjAddr: 0xCC04, symBinAddr: 0x100010FB4, symSize: 0x20 }
  - { offsetInCU: 0x1A461, offset: 0x1A461, size: 0x8, addend: 0x0, symName: __ZNSt3__16vectorI6matrixI4fracENS_9allocatorIS3_EEE7__clearB8ue170006Ev, symObjAddr: 0xCC24, symBinAddr: 0x100010FD4, symSize: 0x28 }
  - { offsetInCU: 0x1A486, offset: 0x1A486, size: 0x8, addend: 0x0, symName: __ZNKSt3__16vectorI6matrixI4fracENS_9allocatorIS3_EEE17__annotate_deleteB8ue170006Ev, symObjAddr: 0xCC4C, symBinAddr: 0x100010FFC, symSize: 0xB8 }
  - { offsetInCU: 0x1A4AB, offset: 0x1A4AB, size: 0x8, addend: 0x0, symName: __ZNSt3__116allocator_traitsINS_9allocatorI6matrixI4fracEEEE10deallocateB8ue170006ERS5_PS4_m, symObjAddr: 0xCD04, symBinAddr: 0x1000110B4, symSize: 0x34 }
  - { offsetInCU: 0x1A4ED, offset: 0x1A4ED, size: 0x8, addend: 0x0, symName: __ZNSt3__16vectorI6matrixI4fracENS_9allocatorIS3_EEE7__allocB8ue170006Ev, symObjAddr: 0xCD38, symBinAddr: 0x1000110E8, symSize: 0x28 }
  - { offsetInCU: 0x1A512, offset: 0x1A512, size: 0x8, addend: 0x0, symName: __ZNKSt3__16vectorI6matrixI4fracENS_9allocatorIS3_EEE8capacityB8ue170006Ev, symObjAddr: 0xCD60, symBinAddr: 0x100011110, symSize: 0x40 }
  - { offsetInCU: 0x1A537, offset: 0x1A537, size: 0x8, addend: 0x0, symName: __ZNSt3__16vectorI6matrixI4fracENS_9allocatorIS3_EEE22__base_destruct_at_endB8ue170006EPS3_, symObjAddr: 0xCDA0, symBinAddr: 0x100011150, symSize: 0xA0 }
  - { offsetInCU: 0x1A57A, offset: 0x1A57A, size: 0x8, addend: 0x0, symName: __ZNSt3__116allocator_traitsINS_9allocatorI6matrixI4fracEEEE7destroyB8ue170006IS4_vEEvRS5_PT_, symObjAddr: 0xCE40, symBinAddr: 0x1000111F0, symSize: 0x2C }
  - { offsetInCU: 0x1A5B7, offset: 0x1A5B7, size: 0x8, addend: 0x0, symName: __ZNSt3__19allocatorI6matrixI4fracEE7destroyB8ue170006EPS3_, symObjAddr: 0xCE80, symBinAddr: 0x100011230, symSize: 0x28 }
  - { offsetInCU: 0x1A5EA, offset: 0x1A5EA, size: 0x8, addend: 0x0, symName: __ZNKSt3__16vectorI6matrixI4fracENS_9allocatorIS3_EEE31__annotate_contiguous_containerB8ue170006EPKvS8_S8_S8_, symObjAddr: 0xCEA8, symBinAddr: 0x100011258, symSize: 0x20 }
  - { offsetInCU: 0x1A63F, offset: 0x1A63F, size: 0x8, addend: 0x0, symName: __ZNKSt3__16vectorI6matrixI4fracENS_9allocatorIS3_EEE4dataB8ue170006Ev, symObjAddr: 0xCEC8, symBinAddr: 0x100011278, symSize: 0x28 }
  - { offsetInCU: 0x1A664, offset: 0x1A664, size: 0x8, addend: 0x0, symName: __ZNSt3__19allocatorI6matrixI4fracEE10deallocateB8ue170006EPS3_m, symObjAddr: 0xCEF0, symBinAddr: 0x1000112A0, symSize: 0x70 }
  - { offsetInCU: 0x1A6A5, offset: 0x1A6A5, size: 0x8, addend: 0x0, symName: __ZNSt3__117__compressed_pairIP6matrixI4fracENS_9allocatorIS3_EEE6secondB8ue170006Ev, symObjAddr: 0xCF60, symBinAddr: 0x100011310, symSize: 0x24 }
  - { offsetInCU: 0x1A6CA, offset: 0x1A6CA, size: 0x8, addend: 0x0, symName: __ZNSt3__122__compressed_pair_elemINS_9allocatorI6matrixI4fracEEELi1ELb1EE5__getB8ue170006Ev, symObjAddr: 0xCF84, symBinAddr: 0x100011334, symSize: 0x14 }
  - { offsetInCU: 0x1A6EF, offset: 0x1A6EF, size: 0x8, addend: 0x0, symName: __ZNKSt3__16vectorI6matrixI4fracENS_9allocatorIS3_EEE9__end_capB8ue170006Ev, symObjAddr: 0xCF98, symBinAddr: 0x100011348, symSize: 0x28 }
  - { offsetInCU: 0x1A714, offset: 0x1A714, size: 0x8, addend: 0x0, symName: __ZNKSt3__117__compressed_pairIP6matrixI4fracENS_9allocatorIS3_EEE5firstB8ue170006Ev, symObjAddr: 0xCFC0, symBinAddr: 0x100011370, symSize: 0x24 }
  - { offsetInCU: 0x1A739, offset: 0x1A739, size: 0x8, addend: 0x0, symName: __ZNKSt3__122__compressed_pair_elemIP6matrixI4fracELi0ELb0EE5__getB8ue170006Ev, symObjAddr: 0xCFE4, symBinAddr: 0x100011394, symSize: 0x14 }
  - { offsetInCU: 0x1A75E, offset: 0x1A75E, size: 0x8, addend: 0x0, symName: __ZN6matrixI4fracEC2Ev, symObjAddr: 0xCFF8, symBinAddr: 0x1000113A8, symSize: 0x38 }
  - { offsetInCU: 0x1A787, offset: 0x1A787, size: 0x8, addend: 0x0, symName: __ZNSt3__16vectorINS0_I4fracNS_9allocatorIS1_EEEENS2_IS4_EEEC1B8ue170006Ev, symObjAddr: 0xD030, symBinAddr: 0x1000113E0, symSize: 0x2C }
  - { offsetInCU: 0x1A7B0, offset: 0x1A7B0, size: 0x8, addend: 0x0, symName: __ZNSt3__16vectorINS0_I4fracNS_9allocatorIS1_EEEENS2_IS4_EEEC2B8ue170006Ev, symObjAddr: 0xD05C, symBinAddr: 0x10001140C, symSize: 0x44 }
  - { offsetInCU: 0x1A7D9, offset: 0x1A7D9, size: 0x8, addend: 0x0, symName: __ZNSt3__117__compressed_pairIPNS_6vectorI4fracNS_9allocatorIS2_EEEENS3_IS5_EEEC1B8ue170006IDnNS_18__default_init_tagEEEOT_OT0_, symObjAddr: 0xD0A0, symBinAddr: 0x100011450, symSize: 0x3C }
  - { offsetInCU: 0x1A830, offset: 0x1A830, size: 0x8, addend: 0x0, symName: __ZNSt3__117__compressed_pairIPNS_6vectorI4fracNS_9allocatorIS2_EEEENS3_IS5_EEEC2B8ue170006IDnNS_18__default_init_tagEEEOT_OT0_, symObjAddr: 0xD0DC, symBinAddr: 0x10001148C, symSize: 0x40 }
  - { offsetInCU: 0x1A887, offset: 0x1A887, size: 0x8, addend: 0x0, symName: __ZNSt3__122__compressed_pair_elemIPNS_6vectorI4fracNS_9allocatorIS2_EEEELi0ELb0EEC2B8ue170006IDnvEEOT_, symObjAddr: 0xD11C, symBinAddr: 0x1000114CC, symSize: 0x1C }
  - { offsetInCU: 0x1A8C8, offset: 0x1A8C8, size: 0x8, addend: 0x0, symName: __ZNSt3__122__compressed_pair_elemINS_9allocatorINS_6vectorI4fracNS1_IS3_EEEEEELi1ELb1EEC2B8ue170006ENS_18__default_init_tagE, symObjAddr: 0xD138, symBinAddr: 0x1000114E8, symSize: 0x2C }
  - { offsetInCU: 0x1A8FB, offset: 0x1A8FB, size: 0x8, addend: 0x0, symName: __ZNSt3__19allocatorINS_6vectorI4fracNS0_IS2_EEEEEC2B8ue170006Ev, symObjAddr: 0xD164, symBinAddr: 0x100011514, symSize: 0x2C }
  - { offsetInCU: 0x1A924, offset: 0x1A924, size: 0x8, addend: 0x0, symName: __ZNSt3__116__non_trivial_ifILb1ENS_9allocatorINS_6vectorI4fracNS1_IS3_EEEEEEEC2B8ue170006Ev, symObjAddr: 0xD190, symBinAddr: 0x100011540, symSize: 0x14 }
  - { offsetInCU: 0x1A94D, offset: 0x1A94D, size: 0x8, addend: 0x0, symName: __ZNSt3__16vectorI6matrixI4fracENS_9allocatorIS3_EEE9__end_capB8ue170006Ev, symObjAddr: 0xD1A4, symBinAddr: 0x100011554, symSize: 0x28 }
  - { offsetInCU: 0x1A972, offset: 0x1A972, size: 0x8, addend: 0x0, symName: __ZNSt3__16vectorI6matrixI4fracENS_9allocatorIS3_EEE22__construct_one_at_endB8ue170006IJRKS3_EEEvDpOT_, symObjAddr: 0xD1CC, symBinAddr: 0x10001157C, symSize: 0x98 }
  - { offsetInCU: 0x1A9BF, offset: 0x1A9BF, size: 0x8, addend: 0x0, symName: __ZNSt3__16vectorI6matrixI4fracENS_9allocatorIS3_EEE21__push_back_slow_pathIRKS3_EEvOT_, symObjAddr: 0xD264, symBinAddr: 0x100011614, symSize: 0xE0 }
  - { offsetInCU: 0x1AA1C, offset: 0x1AA1C, size: 0x8, addend: 0x0, symName: __ZNSt3__117__compressed_pairIP6matrixI4fracENS_9allocatorIS3_EEE5firstB8ue170006Ev, symObjAddr: 0xD344, symBinAddr: 0x1000116F4, symSize: 0x24 }
  - { offsetInCU: 0x1AA41, offset: 0x1AA41, size: 0x8, addend: 0x0, symName: __ZNSt3__122__compressed_pair_elemIP6matrixI4fracELi0ELb0EE5__getB8ue170006Ev, symObjAddr: 0xD368, symBinAddr: 0x100011718, symSize: 0x14 }
  - { offsetInCU: 0x1AA7F, offset: 0x1AA7F, size: 0x8, addend: 0x0, symName: __ZNSt3__16vectorI6matrixI4fracENS_9allocatorIS3_EEE21_ConstructTransactionC1B8ue170006ERS6_m, symObjAddr: 0xD37C, symBinAddr: 0x10001172C, symSize: 0x3C }
  - { offsetInCU: 0x1AAC6, offset: 0x1AAC6, size: 0x8, addend: 0x0, symName: __ZNSt3__116allocator_traitsINS_9allocatorI6matrixI4fracEEEE9constructB8ue170006IS4_JRKS4_EvEEvRS5_PT_DpOT0_, symObjAddr: 0xD3B8, symBinAddr: 0x100011768, symSize: 0x34 }
  - { offsetInCU: 0x1AB1D, offset: 0x1AB1D, size: 0x8, addend: 0x0, symName: __ZNSt3__16vectorI6matrixI4fracENS_9allocatorIS3_EEE21_ConstructTransactionD1B8ue170006Ev, symObjAddr: 0xD3EC, symBinAddr: 0x10001179C, symSize: 0x2C }
  - { offsetInCU: 0x1AB46, offset: 0x1AB46, size: 0x8, addend: 0x0, symName: __ZNSt3__16vectorI6matrixI4fracENS_9allocatorIS3_EEE21_ConstructTransactionC2B8ue170006ERS6_m, symObjAddr: 0xD418, symBinAddr: 0x1000117C8, symSize: 0x44 }
  - { offsetInCU: 0x1AB8D, offset: 0x1AB8D, size: 0x8, addend: 0x0, symName: __ZNSt3__19allocatorI6matrixI4fracEE9constructB8ue170006IS3_JRKS3_EEEvPT_DpOT0_, symObjAddr: 0xD45C, symBinAddr: 0x10001180C, symSize: 0x30 }
  - { offsetInCU: 0x1ABE2, offset: 0x1ABE2, size: 0x8, addend: 0x0, symName: __ZN6matrixI4fracEC1ERKS1_, symObjAddr: 0xD48C, symBinAddr: 0x10001183C, symSize: 0x34 }
  - { offsetInCU: 0x1AC1A, offset: 0x1AC1A, size: 0x8, addend: 0x0, symName: __ZN6matrixI4fracEC2ERKS1_, symObjAddr: 0xD4C0, symBinAddr: 0x100011870, symSize: 0x74 }
  - { offsetInCU: 0x1AC52, offset: 0x1AC52, size: 0x8, addend: 0x0, symName: __ZNSt3__16vectorI6matrixI4fracENS_9allocatorIS3_EEE21_ConstructTransactionD2B8ue170006Ev, symObjAddr: 0xD534, symBinAddr: 0x1000118E4, symSize: 0x20 }
  - { offsetInCU: 0x1AC7A, offset: 0x1AC7A, size: 0x8, addend: 0x0, symName: __ZNKSt3__16vectorI6matrixI4fracENS_9allocatorIS3_EEE11__recommendB8ue170006Em, symObjAddr: 0xD554, symBinAddr: 0x100011904, symSize: 0xB4 }
  - { offsetInCU: 0x1ACCE, offset: 0x1ACCE, size: 0x8, addend: 0x0, symName: __ZNSt3__114__split_bufferI6matrixI4fracERNS_9allocatorIS3_EEEC1EmmS6_, symObjAddr: 0xD608, symBinAddr: 0x1000119B8, symSize: 0x44 }
  - { offsetInCU: 0x1AD23, offset: 0x1AD23, size: 0x8, addend: 0x0, symName: __ZNSt3__114__split_bufferI6matrixI4fracERNS_9allocatorIS3_EEED1Ev, symObjAddr: 0xD75C, symBinAddr: 0x100011B0C, symSize: 0x2C }
  - { offsetInCU: 0x1AD4D, offset: 0x1AD4D, size: 0x8, addend: 0x0, symName: __ZNKSt3__16vectorI6matrixI4fracENS_9allocatorIS3_EEE8max_sizeEv, symObjAddr: 0xD788, symBinAddr: 0x100011B38, symSize: 0x74 }
  - { offsetInCU: 0x1AD74, offset: 0x1AD74, size: 0x8, addend: 0x0, symName: __ZNKSt3__16vectorI6matrixI4fracENS_9allocatorIS3_EEE20__throw_length_errorB8ue170006Ev, symObjAddr: 0xD7FC, symBinAddr: 0x100011BAC, symSize: 0x1C }
  - { offsetInCU: 0x1ADA3, offset: 0x1ADA3, size: 0x8, addend: 0x0, symName: __ZNSt3__116allocator_traitsINS_9allocatorI6matrixI4fracEEEE8max_sizeB8ue170006IS5_vEEmRKS5_, symObjAddr: 0xD818, symBinAddr: 0x100011BC8, symSize: 0x24 }
  - { offsetInCU: 0x1ADD1, offset: 0x1ADD1, size: 0x8, addend: 0x0, symName: __ZNKSt3__16vectorI6matrixI4fracENS_9allocatorIS3_EEE7__allocB8ue170006Ev, symObjAddr: 0xD83C, symBinAddr: 0x100011BEC, symSize: 0x28 }
  - { offsetInCU: 0x1ADF6, offset: 0x1ADF6, size: 0x8, addend: 0x0, symName: __ZNKSt3__19allocatorI6matrixI4fracEE8max_sizeB8ue170006Ev, symObjAddr: 0xD864, symBinAddr: 0x100011C14, symSize: 0x14 }
  - { offsetInCU: 0x1AE1B, offset: 0x1AE1B, size: 0x8, addend: 0x0, symName: __ZNKSt3__117__compressed_pairIP6matrixI4fracENS_9allocatorIS3_EEE6secondB8ue170006Ev, symObjAddr: 0xD878, symBinAddr: 0x100011C28, symSize: 0x24 }
  - { offsetInCU: 0x1AE40, offset: 0x1AE40, size: 0x8, addend: 0x0, symName: __ZNKSt3__122__compressed_pair_elemINS_9allocatorI6matrixI4fracEEELi1ELb1EE5__getB8ue170006Ev, symObjAddr: 0xD89C, symBinAddr: 0x100011C4C, symSize: 0x14 }
  - { offsetInCU: 0x1AE65, offset: 0x1AE65, size: 0x8, addend: 0x0, symName: __ZNSt3__114__split_bufferI6matrixI4fracERNS_9allocatorIS3_EEEC2EmmS6_, symObjAddr: 0xD8B0, symBinAddr: 0x100011C60, symSize: 0xD4 }
  - { offsetInCU: 0x1AED8, offset: 0x1AED8, size: 0x8, addend: 0x0, symName: __ZNSt3__117__compressed_pairIP6matrixI4fracERNS_9allocatorIS3_EEEC1B8ue170006IDnS7_EEOT_OT0_, symObjAddr: 0xD984, symBinAddr: 0x100011D34, symSize: 0x3C }
  - { offsetInCU: 0x1AF2F, offset: 0x1AF2F, size: 0x8, addend: 0x0, symName: __ZNSt3__114__split_bufferI6matrixI4fracERNS_9allocatorIS3_EEE7__allocB8ue170006Ev, symObjAddr: 0xDA00, symBinAddr: 0x100011DB0, symSize: 0x28 }
  - { offsetInCU: 0x1AF54, offset: 0x1AF54, size: 0x8, addend: 0x0, symName: __ZNSt3__114__split_bufferI6matrixI4fracERNS_9allocatorIS3_EEE9__end_capB8ue170006Ev, symObjAddr: 0xDA28, symBinAddr: 0x100011DD8, symSize: 0x28 }
  - { offsetInCU: 0x1AF79, offset: 0x1AF79, size: 0x8, addend: 0x0, symName: __ZNSt3__117__compressed_pairIP6matrixI4fracERNS_9allocatorIS3_EEEC2B8ue170006IDnS7_EEOT_OT0_, symObjAddr: 0xDA50, symBinAddr: 0x100011E00, symSize: 0x48 }
  - { offsetInCU: 0x1AFD0, offset: 0x1AFD0, size: 0x8, addend: 0x0, symName: __ZNSt3__122__compressed_pair_elemIRNS_9allocatorI6matrixI4fracEEELi1ELb0EEC2B8ue170006IS6_vEEOT_, symObjAddr: 0xDA98, symBinAddr: 0x100011E48, symSize: 0x20 }
  - { offsetInCU: 0x1B011, offset: 0x1B011, size: 0x8, addend: 0x0, symName: __ZNSt3__19allocatorI6matrixI4fracEE8allocateB8ue170006Em, symObjAddr: 0xDAB8, symBinAddr: 0x100011E68, symSize: 0x84 }
  - { offsetInCU: 0x1B044, offset: 0x1B044, size: 0x8, addend: 0x0, symName: __ZNSt3__117__compressed_pairIP6matrixI4fracERNS_9allocatorIS3_EEE6secondB8ue170006Ev, symObjAddr: 0xDB3C, symBinAddr: 0x100011EEC, symSize: 0x28 }
  - { offsetInCU: 0x1B069, offset: 0x1B069, size: 0x8, addend: 0x0, symName: __ZNSt3__122__compressed_pair_elemIRNS_9allocatorI6matrixI4fracEEELi1ELb0EE5__getB8ue170006Ev, symObjAddr: 0xDB64, symBinAddr: 0x100011F14, symSize: 0x18 }
  - { offsetInCU: 0x1B08E, offset: 0x1B08E, size: 0x8, addend: 0x0, symName: __ZNSt3__117__compressed_pairIP6matrixI4fracERNS_9allocatorIS3_EEE5firstB8ue170006Ev, symObjAddr: 0xDB7C, symBinAddr: 0x100011F2C, symSize: 0x24 }
  - { offsetInCU: 0x1B0B3, offset: 0x1B0B3, size: 0x8, addend: 0x0, symName: __ZNSt3__116reverse_iteratorIP6matrixI4fracEEC1B8ue170006ES4_, symObjAddr: 0xDCD4, symBinAddr: 0x100012084, symSize: 0x34 }
  - { offsetInCU: 0x1B0EA, offset: 0x1B0EA, size: 0x8, addend: 0x0, symName: __ZNKSt3__116reverse_iteratorIP6matrixI4fracEE4baseB8ue170006Ev, symObjAddr: 0xDD08, symBinAddr: 0x1000120B8, symSize: 0x18 }
  - { offsetInCU: 0x1B10F, offset: 0x1B10F, size: 0x8, addend: 0x0, symName: __ZNKSt3__16vectorI6matrixI4fracENS_9allocatorIS3_EEE14__annotate_newB8ue170006Em, symObjAddr: 0xDD5C, symBinAddr: 0x10001210C, symSize: 0xAC }
  - { offsetInCU: 0x1B143, offset: 0x1B143, size: 0x8, addend: 0x0, symName: __ZNSt3__129_AllocatorDestroyRangeReverseINS_9allocatorI6matrixI4fracEEENS_16reverse_iteratorIPS4_EEEC1B8ue170006ERS5_RS8_SB_, symObjAddr: 0xDE54, symBinAddr: 0x100012204, symSize: 0x44 }
  - { offsetInCU: 0x1B199, offset: 0x1B199, size: 0x8, addend: 0x0, symName: __ZNKSt3__116reverse_iteratorIP6matrixI4fracEEdeB8ue170006Ev, symObjAddr: 0xDF04, symBinAddr: 0x1000122B4, symSize: 0x28 }
  - { offsetInCU: 0x1B1CC, offset: 0x1B1CC, size: 0x8, addend: 0x0, symName: __ZNSt3__116reverse_iteratorIP6matrixI4fracEEppB8ue170006Ev, symObjAddr: 0xDF2C, symBinAddr: 0x1000122DC, symSize: 0x20 }
  - { offsetInCU: 0x1B1F1, offset: 0x1B1F1, size: 0x8, addend: 0x0, symName: __ZNSt3__128__exception_guard_exceptionsINS_29_AllocatorDestroyRangeReverseINS_9allocatorI6matrixI4fracEEENS_16reverse_iteratorIPS5_EEEEE10__completeB8ue170006Ev, symObjAddr: 0xDF4C, symBinAddr: 0x1000122FC, symSize: 0x1C }
  - { offsetInCU: 0x1B216, offset: 0x1B216, size: 0x8, addend: 0x0, symName: __ZNSt3__128__exception_guard_exceptionsINS_29_AllocatorDestroyRangeReverseINS_9allocatorI6matrixI4fracEEENS_16reverse_iteratorIPS5_EEEEED1B8ue170006Ev, symObjAddr: 0xDF68, symBinAddr: 0x100012318, symSize: 0x2C }
  - { offsetInCU: 0x1B23F, offset: 0x1B23F, size: 0x8, addend: 0x0, symName: __ZNSt3__128__exception_guard_exceptionsINS_29_AllocatorDestroyRangeReverseINS_9allocatorI6matrixI4fracEEENS_16reverse_iteratorIPS5_EEEEEC1B8ue170006ESA_, symObjAddr: 0xDF94, symBinAddr: 0x100012344, symSize: 0x34 }
  - { offsetInCU: 0x1B277, offset: 0x1B277, size: 0x8, addend: 0x0, symName: __ZNSt3__128__exception_guard_exceptionsINS_29_AllocatorDestroyRangeReverseINS_9allocatorI6matrixI4fracEEENS_16reverse_iteratorIPS5_EEEEEC2B8ue170006ESA_, symObjAddr: 0xDFC8, symBinAddr: 0x100012378, symSize: 0x30 }
  - { offsetInCU: 0x1B2AF, offset: 0x1B2AF, size: 0x8, addend: 0x0, symName: __ZNSt3__129_AllocatorDestroyRangeReverseINS_9allocatorI6matrixI4fracEEENS_16reverse_iteratorIPS4_EEEC2B8ue170006ERS5_RS8_SB_, symObjAddr: 0xDFF8, symBinAddr: 0x1000123A8, symSize: 0x38 }
  - { offsetInCU: 0x1B30A, offset: 0x1B30A, size: 0x8, addend: 0x0, symName: __ZNSt3__119__to_address_helperINS_16reverse_iteratorIP6matrixI4fracEEEvE6__callB8ue170006ERKS6_, symObjAddr: 0xE030, symBinAddr: 0x1000123E0, symSize: 0x4C }
  - { offsetInCU: 0x1B32D, offset: 0x1B32D, size: 0x8, addend: 0x0, symName: __ZNKSt3__116reverse_iteratorIP6matrixI4fracEEptB8ue170006Ev, symObjAddr: 0xE07C, symBinAddr: 0x10001242C, symSize: 0x24 }
  - { offsetInCU: 0x1B352, offset: 0x1B352, size: 0x8, addend: 0x0, symName: __ZNSt3__128__exception_guard_exceptionsINS_29_AllocatorDestroyRangeReverseINS_9allocatorI6matrixI4fracEEENS_16reverse_iteratorIPS5_EEEEED2B8ue170006Ev, symObjAddr: 0xE0A0, symBinAddr: 0x100012450, symSize: 0x48 }
  - { offsetInCU: 0x1B37B, offset: 0x1B37B, size: 0x8, addend: 0x0, symName: __ZNKSt3__129_AllocatorDestroyRangeReverseINS_9allocatorI6matrixI4fracEEENS_16reverse_iteratorIPS4_EEEclB8ue170006Ev, symObjAddr: 0xE0E8, symBinAddr: 0x100012498, symSize: 0xB4 }
  - { offsetInCU: 0x1B3A1, offset: 0x1B3A1, size: 0x8, addend: 0x0, symName: __ZNSt3__116reverse_iteratorINS0_IP6matrixI4fracEEEEC1B8ue170006ES5_, symObjAddr: 0xE20C, symBinAddr: 0x1000125BC, symSize: 0x3C }
  - { offsetInCU: 0x1B3D8, offset: 0x1B3D8, size: 0x8, addend: 0x0, symName: __ZNSt3__116reverse_iteratorINS0_IP6matrixI4fracEEEEppB8ue170006Ev, symObjAddr: 0xE2CC, symBinAddr: 0x10001267C, symSize: 0x30 }
  - { offsetInCU: 0x1B3FD, offset: 0x1B3FD, size: 0x8, addend: 0x0, symName: __ZNKSt3__116reverse_iteratorINS0_IP6matrixI4fracEEEE4baseB8ue170006Ev, symObjAddr: 0xE2FC, symBinAddr: 0x1000126AC, symSize: 0x24 }
  - { offsetInCU: 0x1B427, offset: 0x1B427, size: 0x8, addend: 0x0, symName: __ZNSt3__119__to_address_helperINS_16reverse_iteratorINS1_IP6matrixI4fracEEEEEvE6__callB8ue170006ERKS7_, symObjAddr: 0xE320, symBinAddr: 0x1000126D0, symSize: 0x4C }
  - { offsetInCU: 0x1B44A, offset: 0x1B44A, size: 0x8, addend: 0x0, symName: __ZNKSt3__116reverse_iteratorINS0_IP6matrixI4fracEEEEptB8ue170006Ev, symObjAddr: 0xE36C, symBinAddr: 0x10001271C, symSize: 0x24 }
  - { offsetInCU: 0x1B46F, offset: 0x1B46F, size: 0x8, addend: 0x0, symName: __ZNKSt3__116reverse_iteratorINS0_IP6matrixI4fracEEEEdeB8ue170006Ev, symObjAddr: 0xE390, symBinAddr: 0x100012740, symSize: 0x34 }
  - { offsetInCU: 0x1B4A2, offset: 0x1B4A2, size: 0x8, addend: 0x0, symName: __ZNSt3__116reverse_iteratorIP6matrixI4fracEEmmB8ue170006Ev, symObjAddr: 0xE3C4, symBinAddr: 0x100012774, symSize: 0x20 }
  - { offsetInCU: 0x1B4C7, offset: 0x1B4C7, size: 0x8, addend: 0x0, symName: __ZNSt3__116reverse_iteratorINS0_IP6matrixI4fracEEEEC2B8ue170006ES5_, symObjAddr: 0xE3E4, symBinAddr: 0x100012794, symSize: 0x2C }
  - { offsetInCU: 0x1B4FE, offset: 0x1B4FE, size: 0x8, addend: 0x0, symName: __ZNSt3__116reverse_iteratorIP6matrixI4fracEEC2B8ue170006ES4_, symObjAddr: 0xE410, symBinAddr: 0x1000127C0, symSize: 0x28 }
  - { offsetInCU: 0x1B535, offset: 0x1B535, size: 0x8, addend: 0x0, symName: __ZNSt3__114__split_bufferI6matrixI4fracERNS_9allocatorIS3_EEED2Ev, symObjAddr: 0xE438, symBinAddr: 0x1000127E8, symSize: 0x80 }
  - { offsetInCU: 0x1B560, offset: 0x1B560, size: 0x8, addend: 0x0, symName: __ZNSt3__114__split_bufferI6matrixI4fracERNS_9allocatorIS3_EEE5clearB8ue170006Ev, symObjAddr: 0xE4B8, symBinAddr: 0x100012868, symSize: 0x28 }
  - { offsetInCU: 0x1B585, offset: 0x1B585, size: 0x8, addend: 0x0, symName: __ZNKSt3__114__split_bufferI6matrixI4fracERNS_9allocatorIS3_EEE8capacityB8ue170006Ev, symObjAddr: 0xE4E0, symBinAddr: 0x100012890, symSize: 0x40 }
  - { offsetInCU: 0x1B5AA, offset: 0x1B5AA, size: 0x8, addend: 0x0, symName: __ZNSt3__114__split_bufferI6matrixI4fracERNS_9allocatorIS3_EEE17__destruct_at_endB8ue170006EPS3_, symObjAddr: 0xE520, symBinAddr: 0x1000128D0, symSize: 0x2C }
  - { offsetInCU: 0x1B5DC, offset: 0x1B5DC, size: 0x8, addend: 0x0, symName: __ZNSt3__114__split_bufferI6matrixI4fracERNS_9allocatorIS3_EEE17__destruct_at_endB8ue170006EPS3_NS_17integral_constantIbLb0EEE, symObjAddr: 0xE54C, symBinAddr: 0x1000128FC, symSize: 0x94 }
  - { offsetInCU: 0x1B61B, offset: 0x1B61B, size: 0x8, addend: 0x0, symName: __ZNKSt3__114__split_bufferI6matrixI4fracERNS_9allocatorIS3_EEE9__end_capB8ue170006Ev, symObjAddr: 0xE5E0, symBinAddr: 0x100012990, symSize: 0x28 }
  - { offsetInCU: 0x1B640, offset: 0x1B640, size: 0x8, addend: 0x0, symName: __ZNKSt3__117__compressed_pairIP6matrixI4fracERNS_9allocatorIS3_EEE5firstB8ue170006Ev, symObjAddr: 0xE608, symBinAddr: 0x1000129B8, symSize: 0x24 }
  - { offsetInCU: 0x1B665, offset: 0x1B665, size: 0x8, addend: 0x0, symName: __ZNSt3__111char_traitsIcE6lengthB8ue170006EPKc, symObjAddr: 0xE820, symBinAddr: 0x100012BD0, symSize: 0x48 }
  - { offsetInCU: 0x1B6A6, offset: 0x1B6A6, size: 0x8, addend: 0x0, symName: __ZNKSt3__113basic_ostreamIcNS_11char_traitsIcEEE6sentrycvbB8ue170006Ev, symObjAddr: 0xE868, symBinAddr: 0x100012C18, symSize: 0x1C }
  - { offsetInCU: 0x1B6CB, offset: 0x1B6CB, size: 0x8, addend: 0x0, symName: __ZNSt3__119ostreambuf_iteratorIcNS_11char_traitsIcEEEC1B8ue170006ERNS_13basic_ostreamIcS2_EE, symObjAddr: 0xEACC, symBinAddr: 0x100012E7C, symSize: 0x34 }
  - { offsetInCU: 0x1B702, offset: 0x1B702, size: 0x8, addend: 0x0, symName: __ZNKSt3__18ios_base5flagsB8ue170006Ev, symObjAddr: 0xEB00, symBinAddr: 0x100012EB0, symSize: 0x18 }
  - { offsetInCU: 0x1B728, offset: 0x1B728, size: 0x8, addend: 0x0, symName: __ZNKSt3__19basic_iosIcNS_11char_traitsIcEEE4fillB8ue170006Ev, symObjAddr: 0xEB18, symBinAddr: 0x100012EC8, symSize: 0x64 }
  - { offsetInCU: 0x1B74F, offset: 0x1B74F, size: 0x8, addend: 0x0, symName: __ZNKSt3__119ostreambuf_iteratorIcNS_11char_traitsIcEEE6failedB8ue170006Ev, symObjAddr: 0xEB7C, symBinAddr: 0x100012F2C, symSize: 0x24 }
  - { offsetInCU: 0x1B774, offset: 0x1B774, size: 0x8, addend: 0x0, symName: __ZNSt3__19basic_iosIcNS_11char_traitsIcEEE8setstateB8ue170006Ej, symObjAddr: 0xEBA0, symBinAddr: 0x100012F50, symSize: 0x2C }
  - { offsetInCU: 0x1B7A8, offset: 0x1B7A8, size: 0x8, addend: 0x0, symName: __ZNKSt3__18ios_base5widthB8ue170006Ev, symObjAddr: 0xEBCC, symBinAddr: 0x100012F7C, symSize: 0x18 }
  - { offsetInCU: 0x1B7CF, offset: 0x1B7CF, size: 0x8, addend: 0x0, symName: __ZNSt3__115basic_streambufIcNS_11char_traitsIcEEE5sputnB8ue170006EPKcl, symObjAddr: 0xEBE4, symBinAddr: 0x100012F94, symSize: 0x3C }
  - { offsetInCU: 0x1B810, offset: 0x1B810, size: 0x8, addend: 0x0, symName: __ZNSt3__112basic_stringIcNS_11char_traitsIcEENS_9allocatorIcEEEC1B8ue170006Emc, symObjAddr: 0xEC20, symBinAddr: 0x100012FD0, symSize: 0x3C }
  - { offsetInCU: 0x1B857, offset: 0x1B857, size: 0x8, addend: 0x0, symName: __ZNKSt3__112basic_stringIcNS_11char_traitsIcEENS_9allocatorIcEEE4dataB8ue170006Ev, symObjAddr: 0xEC5C, symBinAddr: 0x10001300C, symSize: 0x28 }
  - { offsetInCU: 0x1B87C, offset: 0x1B87C, size: 0x8, addend: 0x0, symName: __ZNSt3__18ios_base5widthB8ue170006El, symObjAddr: 0xEC84, symBinAddr: 0x100013034, symSize: 0x2C }
  - { offsetInCU: 0x1B8C1, offset: 0x1B8C1, size: 0x8, addend: 0x0, symName: __ZNSt3__112basic_stringIcNS_11char_traitsIcEENS_9allocatorIcEEEC2B8ue170006Emc, symObjAddr: 0xECB0, symBinAddr: 0x100013060, symSize: 0x4C }
  - { offsetInCU: 0x1B908, offset: 0x1B908, size: 0x8, addend: 0x0, symName: __ZNKSt3__112basic_stringIcNS_11char_traitsIcEENS_9allocatorIcEEE13__get_pointerB8ue170006Ev, symObjAddr: 0xED10, symBinAddr: 0x1000130C0, symSize: 0x54 }
  - { offsetInCU: 0x1B92D, offset: 0x1B92D, size: 0x8, addend: 0x0, symName: __ZNKSt3__112basic_stringIcNS_11char_traitsIcEENS_9allocatorIcEEE9__is_longB8ue170006Ev, symObjAddr: 0xED64, symBinAddr: 0x100013114, symSize: 0x74 }
  - { offsetInCU: 0x1B952, offset: 0x1B952, size: 0x8, addend: 0x0, symName: __ZNKSt3__112basic_stringIcNS_11char_traitsIcEENS_9allocatorIcEEE18__get_long_pointerB8ue170006Ev, symObjAddr: 0xEDD8, symBinAddr: 0x100013188, symSize: 0x28 }
  - { offsetInCU: 0x1B977, offset: 0x1B977, size: 0x8, addend: 0x0, symName: __ZNKSt3__112basic_stringIcNS_11char_traitsIcEENS_9allocatorIcEEE19__get_short_pointerB8ue170006Ev, symObjAddr: 0xEE00, symBinAddr: 0x1000131B0, symSize: 0x28 }
  - { offsetInCU: 0x1B99C, offset: 0x1B99C, size: 0x8, addend: 0x0, symName: __ZNKSt3__117__compressed_pairINS_12basic_stringIcNS_11char_traitsIcEENS_9allocatorIcEEE5__repES5_E5firstB8ue170006Ev, symObjAddr: 0xEE28, symBinAddr: 0x1000131D8, symSize: 0x24 }
  - { offsetInCU: 0x1B9C1, offset: 0x1B9C1, size: 0x8, addend: 0x0, symName: __ZNKSt3__122__compressed_pair_elemINS_12basic_stringIcNS_11char_traitsIcEENS_9allocatorIcEEE5__repELi0ELb0EE5__getB8ue170006Ev, symObjAddr: 0xEE4C, symBinAddr: 0x1000131FC, symSize: 0x14 }
  - { offsetInCU: 0x1B9E6, offset: 0x1B9E6, size: 0x8, addend: 0x0, symName: __ZNSt3__114pointer_traitsIPKcE10pointer_toB8ue170006ERS1_, symObjAddr: 0xEE60, symBinAddr: 0x100013210, symSize: 0x14 }
  - { offsetInCU: 0x1BA09, offset: 0x1BA09, size: 0x8, addend: 0x0, symName: __ZNSt3__119ostreambuf_iteratorIcNS_11char_traitsIcEEEC2B8ue170006ERNS_13basic_ostreamIcS2_EE, symObjAddr: 0xEE74, symBinAddr: 0x100013224, symSize: 0x68 }
  - { offsetInCU: 0x1BA3F, offset: 0x1BA3F, size: 0x8, addend: 0x0, symName: __ZNKSt3__19basic_iosIcNS_11char_traitsIcEEE5rdbufB8ue170006Ev, symObjAddr: 0xEEDC, symBinAddr: 0x10001328C, symSize: 0x24 }
  - { offsetInCU: 0x1BA66, offset: 0x1BA66, size: 0x8, addend: 0x0, symName: __ZNKSt3__18ios_base5rdbufB8ue170006Ev, symObjAddr: 0xEF00, symBinAddr: 0x1000132B0, symSize: 0x18 }
  - { offsetInCU: 0x1BA8B, offset: 0x1BA8B, size: 0x8, addend: 0x0, symName: __ZNSt3__111char_traitsIcE11eq_int_typeB8ue170006Eii, symObjAddr: 0xEF18, symBinAddr: 0x1000132C8, symSize: 0x28 }
  - { offsetInCU: 0x1BABE, offset: 0x1BABE, size: 0x8, addend: 0x0, symName: __ZNSt3__111char_traitsIcE3eofB8ue170006Ev, symObjAddr: 0xEF40, symBinAddr: 0x1000132F0, symSize: 0x8 }
  - { offsetInCU: 0x1BAD1, offset: 0x1BAD1, size: 0x8, addend: 0x0, symName: __ZNKSt3__19basic_iosIcNS_11char_traitsIcEEE5widenB8ue170006Ec, symObjAddr: 0xEF48, symBinAddr: 0x1000132F8, symSize: 0x8C }
  - { offsetInCU: 0x1BB2F, offset: 0x1BB2F, size: 0x8, addend: 0x0, symName: __ZNKSt3__15ctypeIcE5widenB8ue170006Ec, symObjAddr: 0xF000, symBinAddr: 0x1000133B0, symSize: 0x38 }
  - { offsetInCU: 0x1BB62, offset: 0x1BB62, size: 0x8, addend: 0x0, symName: __ZNSt3__18ios_base8setstateB8ue170006Ej, symObjAddr: 0xF038, symBinAddr: 0x1000133E8, symSize: 0x34 }
  - { offsetInCU: 0x1BC25, offset: 0x1BC25, size: 0x8, addend: 0x0, symName: __ZNKSt3__113basic_istreamIcNS_11char_traitsIcEEE6sentrycvbB8ue170006Ev, symObjAddr: 0xF2C8, symBinAddr: 0x100013678, symSize: 0x1C }
  - { offsetInCU: 0x1BC49, offset: 0x1BC49, size: 0x8, addend: 0x0, symName: __ZNSt3__112basic_stringIcNS_11char_traitsIcEENS_9allocatorIcEEE5clearB8ue170006Ev, symObjAddr: 0xF2E4, symBinAddr: 0x100013694, symSize: 0x78 }
  - { offsetInCU: 0x1BC70, offset: 0x1BC70, size: 0x8, addend: 0x0, symName: __ZNSt3__115basic_streambufIcNS_11char_traitsIcEEE6sbumpcB8ue170006Ev, symObjAddr: 0xF35C, symBinAddr: 0x10001370C, symSize: 0x78 }
  - { offsetInCU: 0x1BC95, offset: 0x1BC95, size: 0x8, addend: 0x0, symName: __ZNSt3__111char_traitsIcE12to_char_typeB8ue170006Ei, symObjAddr: 0xF3D4, symBinAddr: 0x100013784, symSize: 0x18 }
  - { offsetInCU: 0x1BCB8, offset: 0x1BCB8, size: 0x8, addend: 0x0, symName: __ZNSt3__111char_traitsIcE2eqEcc, symObjAddr: 0xF3EC, symBinAddr: 0x10001379C, symSize: 0x28 }
  - { offsetInCU: 0x1BCE9, offset: 0x1BCE9, size: 0x8, addend: 0x0, symName: __ZNKSt3__112basic_stringIcNS_11char_traitsIcEENS_9allocatorIcEEE4sizeB8ue170006Ev, symObjAddr: 0xF414, symBinAddr: 0x1000137C4, symSize: 0x54 }
  - { offsetInCU: 0x1BD0E, offset: 0x1BD0E, size: 0x8, addend: 0x0, symName: __ZNKSt3__112basic_stringIcNS_11char_traitsIcEENS_9allocatorIcEEE8max_sizeB8ue170006Ev, symObjAddr: 0xF468, symBinAddr: 0x100013818, symSize: 0xAC }
  - { offsetInCU: 0x1BD60, offset: 0x1BD60, size: 0x8, addend: 0x0, symName: __ZNSt3__18ios_base18__setstate_nothrowB8ue170006Ej, symObjAddr: 0xF514, symBinAddr: 0x1000138C4, symSize: 0x64 }
  - { offsetInCU: 0x1BD94, offset: 0x1BD94, size: 0x8, addend: 0x0, symName: __ZNKSt3__19basic_iosIcNS_11char_traitsIcEEE10exceptionsB8ue170006Ev, symObjAddr: 0xF578, symBinAddr: 0x100013928, symSize: 0x24 }
  - { offsetInCU: 0x1BDB9, offset: 0x1BDB9, size: 0x8, addend: 0x0, symName: __ZNSt3__111char_traitsIcE6assignB8ue170006ERcRKc, symObjAddr: 0xF59C, symBinAddr: 0x10001394C, symSize: 0x24 }
  - { offsetInCU: 0x1BDEA, offset: 0x1BDEA, size: 0x8, addend: 0x0, symName: __ZNSt3__112basic_stringIcNS_11char_traitsIcEENS_9allocatorIcEEE18__get_long_pointerB8ue170006Ev, symObjAddr: 0xF5C0, symBinAddr: 0x100013970, symSize: 0x28 }
  - { offsetInCU: 0x1BE0F, offset: 0x1BE0F, size: 0x8, addend: 0x0, symName: __ZNSt3__112basic_stringIcNS_11char_traitsIcEENS_9allocatorIcEEE19__get_short_pointerB8ue170006Ev, symObjAddr: 0xF5E8, symBinAddr: 0x100013998, symSize: 0x28 }
  - { offsetInCU: 0x1BE34, offset: 0x1BE34, size: 0x8, addend: 0x0, symName: __ZNSt3__112basic_stringIcNS_11char_traitsIcEENS_9allocatorIcEEE16__set_short_sizeB8ue170006Em, symObjAddr: 0xF610, symBinAddr: 0x1000139C0, symSize: 0x78 }
  - { offsetInCU: 0x1BE68, offset: 0x1BE68, size: 0x8, addend: 0x0, symName: __ZNSt3__114pointer_traitsIPcE10pointer_toB8ue170006ERc, symObjAddr: 0xF688, symBinAddr: 0x100013A38, symSize: 0x14 }
  - { offsetInCU: 0x1BE8B, offset: 0x1BE8B, size: 0x8, addend: 0x0, symName: __ZNSt3__111char_traitsIcE11to_int_typeB8ue170006Ec, symObjAddr: 0xF69C, symBinAddr: 0x100013A4C, symSize: 0x14 }
  - { offsetInCU: 0x1BEAF, offset: 0x1BEAF, size: 0x8, addend: 0x0, symName: __ZNKSt3__112basic_stringIcNS_11char_traitsIcEENS_9allocatorIcEEE15__get_long_sizeB8ue170006Ev, symObjAddr: 0xF6B0, symBinAddr: 0x100013A60, symSize: 0x28 }
  - { offsetInCU: 0x1BED4, offset: 0x1BED4, size: 0x8, addend: 0x0, symName: __ZNKSt3__112basic_stringIcNS_11char_traitsIcEENS_9allocatorIcEEE16__get_short_sizeB8ue170006Ev, symObjAddr: 0xF6D8, symBinAddr: 0x100013A88, symSize: 0x34 }
  - { offsetInCU: 0x1BEF9, offset: 0x1BEF9, size: 0x8, addend: 0x0, symName: __ZNKSt3__112basic_stringIcNS_11char_traitsIcEENS_9allocatorIcEEE7__allocB8ue170006Ev, symObjAddr: 0xF70C, symBinAddr: 0x100013ABC, symSize: 0x24 }
  - { offsetInCU: 0x1BF1E, offset: 0x1BF1E, size: 0x8, addend: 0x0, symName: __ZNSt3__114numeric_limitsImE3maxB8ue170006Ev, symObjAddr: 0xF730, symBinAddr: 0x100013AE0, symSize: 0x14 }
  - { offsetInCU: 0x1BF32, offset: 0x1BF32, size: 0x8, addend: 0x0, symName: __ZNKSt3__117__compressed_pairINS_12basic_stringIcNS_11char_traitsIcEENS_9allocatorIcEEE5__repES5_E6secondB8ue170006Ev, symObjAddr: 0xF744, symBinAddr: 0x100013AF4, symSize: 0x24 }
  - { offsetInCU: 0x1BF57, offset: 0x1BF57, size: 0x8, addend: 0x0, symName: __ZNKSt3__122__compressed_pair_elemINS_9allocatorIcEELi1ELb1EE5__getB8ue170006Ev, symObjAddr: 0xF768, symBinAddr: 0x100013B18, symSize: 0x14 }
  - { offsetInCU: 0x1BF7C, offset: 0x1BF7C, size: 0x8, addend: 0x0, symName: __ZNSt3__123__libcpp_numeric_limitsImLb1EE3maxB8ue170006Ev, symObjAddr: 0xF77C, symBinAddr: 0x100013B2C, symSize: 0x8 }
  - { offsetInCU: 0x1BF90, offset: 0x1BF90, size: 0x8, addend: 0x0, symName: __ZNKSt3__18ios_base10exceptionsB8ue170006Ev, symObjAddr: 0xF784, symBinAddr: 0x100013B34, symSize: 0x18 }
  - { offsetInCU: 0x1BFB7, offset: 0x1BFB7, size: 0x8, addend: 0x0, symName: __ZNSt3__16vectorI4fracNS_9allocatorIS1_EEEC1B8ue170006Ev, symObjAddr: 0xF79C, symBinAddr: 0x100013B4C, symSize: 0x2C }
  - { offsetInCU: 0x1BFDF, offset: 0x1BFDF, size: 0x8, addend: 0x0, symName: __ZNSt3__16vectorI4fracNS_9allocatorIS1_EEE6assignEmRKS1_, symObjAddr: 0xF7C8, symBinAddr: 0x100013B78, symSize: 0x108 }
  - { offsetInCU: 0x1C041, offset: 0x1C041, size: 0x8, addend: 0x0, symName: __ZNSt3__16vectorINS0_I4fracNS_9allocatorIS1_EEEENS2_IS4_EEE6assignEmRKS4_, symObjAddr: 0xF8D0, symBinAddr: 0x100013C80, symSize: 0x110 }
  - { offsetInCU: 0x1C0A4, offset: 0x1C0A4, size: 0x8, addend: 0x0, symName: __ZNSt3__16vectorI4fracNS_9allocatorIS1_EEEC2B8ue170006Ev, symObjAddr: 0xF9E0, symBinAddr: 0x100013D90, symSize: 0x44 }
  - { offsetInCU: 0x1C0CD, offset: 0x1C0CD, size: 0x8, addend: 0x0, symName: __ZNSt3__117__compressed_pairIP4fracNS_9allocatorIS1_EEEC1B8ue170006IDnNS_18__default_init_tagEEEOT_OT0_, symObjAddr: 0xFA24, symBinAddr: 0x100013DD4, symSize: 0x3C }
  - { offsetInCU: 0x1C124, offset: 0x1C124, size: 0x8, addend: 0x0, symName: __ZNSt3__117__compressed_pairIP4fracNS_9allocatorIS1_EEEC2B8ue170006IDnNS_18__default_init_tagEEEOT_OT0_, symObjAddr: 0xFA60, symBinAddr: 0x100013E10, symSize: 0x40 }
  - { offsetInCU: 0x1C17B, offset: 0x1C17B, size: 0x8, addend: 0x0, symName: __ZNSt3__122__compressed_pair_elemIP4fracLi0ELb0EEC2B8ue170006IDnvEEOT_, symObjAddr: 0xFAA0, symBinAddr: 0x100013E50, symSize: 0x1C }
  - { offsetInCU: 0x1C1BC, offset: 0x1C1BC, size: 0x8, addend: 0x0, symName: __ZNSt3__122__compressed_pair_elemINS_9allocatorI4fracEELi1ELb1EEC2B8ue170006ENS_18__default_init_tagE, symObjAddr: 0xFABC, symBinAddr: 0x100013E6C, symSize: 0x2C }
  - { offsetInCU: 0x1C1EF, offset: 0x1C1EF, size: 0x8, addend: 0x0, symName: __ZNSt3__19allocatorI4fracEC2B8ue170006Ev, symObjAddr: 0xFAE8, symBinAddr: 0x100013E98, symSize: 0x2C }
  - { offsetInCU: 0x1C218, offset: 0x1C218, size: 0x8, addend: 0x0, symName: __ZNSt3__116__non_trivial_ifILb1ENS_9allocatorI4fracEEEC2B8ue170006Ev, symObjAddr: 0xFB14, symBinAddr: 0x100013EC4, symSize: 0x14 }
  - { offsetInCU: 0x1C240, offset: 0x1C240, size: 0x8, addend: 0x0, symName: __ZNSt3__16vectorI4fracNS_9allocatorIS1_EEE18__construct_at_endEmRKS1_, symObjAddr: 0xFB6C, symBinAddr: 0x100013F1C, symSize: 0xD8 }
  - { offsetInCU: 0x1C2C1, offset: 0x1C2C1, size: 0x8, addend: 0x0, symName: __ZNSt3__16vectorI4fracNS_9allocatorIS1_EEE17__destruct_at_endB8ue170006EPS1_, symObjAddr: 0xFC44, symBinAddr: 0x100013FF4, symSize: 0x4C }
  - { offsetInCU: 0x1C303, offset: 0x1C303, size: 0x8, addend: 0x0, symName: __ZNSt3__16vectorI4fracNS_9allocatorIS1_EEE13__vdeallocateEv, symObjAddr: 0xFC90, symBinAddr: 0x100014040, symSize: 0x94 }
  - { offsetInCU: 0x1C32A, offset: 0x1C32A, size: 0x8, addend: 0x0, symName: __ZNSt3__16vectorI4fracNS_9allocatorIS1_EEE11__vallocateB8ue170006Em, symObjAddr: 0xFD24, symBinAddr: 0x1000140D4, symSize: 0xAC }
  - { offsetInCU: 0x1C36C, offset: 0x1C36C, size: 0x8, addend: 0x0, symName: __ZNKSt3__16vectorI4fracNS_9allocatorIS1_EEE11__recommendB8ue170006Em, symObjAddr: 0xFDD0, symBinAddr: 0x100014180, symSize: 0xB4 }
  - { offsetInCU: 0x1C3D9, offset: 0x1C3D9, size: 0x8, addend: 0x0, symName: __ZNSt3__16vectorI4fracNS_9allocatorIS1_EEE21_ConstructTransactionC1B8ue170006ERS4_m, symObjAddr: 0xFEE8, symBinAddr: 0x100014298, symSize: 0x3C }
  - { offsetInCU: 0x1C420, offset: 0x1C420, size: 0x8, addend: 0x0, symName: __ZNSt3__116allocator_traitsINS_9allocatorI4fracEEE9constructB8ue170006IS2_JRKS2_EvEEvRS3_PT_DpOT0_, symObjAddr: 0xFF24, symBinAddr: 0x1000142D4, symSize: 0x34 }
  - { offsetInCU: 0x1C477, offset: 0x1C477, size: 0x8, addend: 0x0, symName: __ZNSt3__16vectorI4fracNS_9allocatorIS1_EEE21_ConstructTransactionD1B8ue170006Ev, symObjAddr: 0xFF58, symBinAddr: 0x100014308, symSize: 0x2C }
  - { offsetInCU: 0x1C4A0, offset: 0x1C4A0, size: 0x8, addend: 0x0, symName: __ZNSt3__16vectorI4fracNS_9allocatorIS1_EEE21_ConstructTransactionC2B8ue170006ERS4_m, symObjAddr: 0xFF84, symBinAddr: 0x100014334, symSize: 0x44 }
  - { offsetInCU: 0x1C4E7, offset: 0x1C4E7, size: 0x8, addend: 0x0, symName: __ZNSt3__19allocatorI4fracE9constructB8ue170006IS1_JRKS1_EEEvPT_DpOT0_, symObjAddr: 0xFFC8, symBinAddr: 0x100014378, symSize: 0x30 }
  - { offsetInCU: 0x1C53C, offset: 0x1C53C, size: 0x8, addend: 0x0, symName: __ZN4fracC1ERKS_, symObjAddr: 0xFFF8, symBinAddr: 0x1000143A8, symSize: 0x34 }
  - { offsetInCU: 0x1C573, offset: 0x1C573, size: 0x8, addend: 0x0, symName: __ZN4fracC2ERKS_, symObjAddr: 0x1002C, symBinAddr: 0x1000143DC, symSize: 0x30 }
  - { offsetInCU: 0x1C5AA, offset: 0x1C5AA, size: 0x8, addend: 0x0, symName: __ZNSt3__16vectorI4fracNS_9allocatorIS1_EEE21_ConstructTransactionD2B8ue170006Ev, symObjAddr: 0x1005C, symBinAddr: 0x10001440C, symSize: 0x20 }
  - { offsetInCU: 0x1C5D3, offset: 0x1C5D3, size: 0x8, addend: 0x0, symName: __ZNKSt3__16vectorI4fracNS_9allocatorIS1_EEE17__annotate_shrinkB8ue170006Em, symObjAddr: 0x1007C, symBinAddr: 0x10001442C, symSize: 0xB4 }
  - { offsetInCU: 0x1C607, offset: 0x1C607, size: 0x8, addend: 0x0, symName: __ZNSt3__16vectorI4fracNS_9allocatorIS1_EEE5clearB8ue170006Ev, symObjAddr: 0x10130, symBinAddr: 0x1000144E0, symSize: 0x44 }
  - { offsetInCU: 0x1C63B, offset: 0x1C63B, size: 0x8, addend: 0x0, symName: __ZNSt3__16vectorI4fracNS_9allocatorIS1_EEE9__end_capB8ue170006Ev, symObjAddr: 0x10174, symBinAddr: 0x100014524, symSize: 0x28 }
  - { offsetInCU: 0x1C660, offset: 0x1C660, size: 0x8, addend: 0x0, symName: __ZNSt3__117__compressed_pairIP4fracNS_9allocatorIS1_EEE5firstB8ue170006Ev, symObjAddr: 0x1019C, symBinAddr: 0x10001454C, symSize: 0x24 }
  - { offsetInCU: 0x1C685, offset: 0x1C685, size: 0x8, addend: 0x0, symName: __ZNSt3__122__compressed_pair_elemIP4fracLi0ELb0EE5__getB8ue170006Ev, symObjAddr: 0x101C0, symBinAddr: 0x100014570, symSize: 0x14 }
  - { offsetInCU: 0x1C6A9, offset: 0x1C6A9, size: 0x8, addend: 0x0, symName: __ZNKSt3__16vectorI4fracNS_9allocatorIS1_EEE8max_sizeEv, symObjAddr: 0x101D4, symBinAddr: 0x100014584, symSize: 0x74 }
  - { offsetInCU: 0x1C6D0, offset: 0x1C6D0, size: 0x8, addend: 0x0, symName: __ZNKSt3__16vectorI4fracNS_9allocatorIS1_EEE20__throw_length_errorB8ue170006Ev, symObjAddr: 0x10248, symBinAddr: 0x1000145F8, symSize: 0x1C }
  - { offsetInCU: 0x1C6F5, offset: 0x1C6F5, size: 0x8, addend: 0x0, symName: __ZNKSt3__16vectorI4fracNS_9allocatorIS1_EEE14__annotate_newB8ue170006Em, symObjAddr: 0x102A4, symBinAddr: 0x100014654, symSize: 0xAC }
  - { offsetInCU: 0x1C733, offset: 0x1C733, size: 0x8, addend: 0x0, symName: __ZNSt3__116allocator_traitsINS_9allocatorI4fracEEE8max_sizeB8ue170006IS3_vEEmRKS3_, symObjAddr: 0x10350, symBinAddr: 0x100014700, symSize: 0x24 }
  - { offsetInCU: 0x1C761, offset: 0x1C761, size: 0x8, addend: 0x0, symName: __ZNKSt3__16vectorI4fracNS_9allocatorIS1_EEE7__allocB8ue170006Ev, symObjAddr: 0x10374, symBinAddr: 0x100014724, symSize: 0x28 }
  - { offsetInCU: 0x1C786, offset: 0x1C786, size: 0x8, addend: 0x0, symName: __ZNKSt3__19allocatorI4fracE8max_sizeB8ue170006Ev, symObjAddr: 0x1039C, symBinAddr: 0x10001474C, symSize: 0x14 }
  - { offsetInCU: 0x1C7AB, offset: 0x1C7AB, size: 0x8, addend: 0x0, symName: __ZNKSt3__117__compressed_pairIP4fracNS_9allocatorIS1_EEE6secondB8ue170006Ev, symObjAddr: 0x103B0, symBinAddr: 0x100014760, symSize: 0x24 }
  - { offsetInCU: 0x1C7D0, offset: 0x1C7D0, size: 0x8, addend: 0x0, symName: __ZNKSt3__122__compressed_pair_elemINS_9allocatorI4fracEELi1ELb1EE5__getB8ue170006Ev, symObjAddr: 0x103D4, symBinAddr: 0x100014784, symSize: 0x14 }
  - { offsetInCU: 0x1C7F5, offset: 0x1C7F5, size: 0x8, addend: 0x0, symName: __ZNSt3__19allocatorI4fracE8allocateB8ue170006Em, symObjAddr: 0x103E8, symBinAddr: 0x100014798, symSize: 0x84 }
  - { offsetInCU: 0x1C827, offset: 0x1C827, size: 0x8, addend: 0x0, symName: __ZNSt3__16vectorINS0_I4fracNS_9allocatorIS1_EEEENS2_IS4_EEE18__construct_at_endEmRKS4_, symObjAddr: 0x104B0, symBinAddr: 0x100014860, symSize: 0xD8 }
  - { offsetInCU: 0x1C8A8, offset: 0x1C8A8, size: 0x8, addend: 0x0, symName: __ZNSt3__16vectorINS0_I4fracNS_9allocatorIS1_EEEENS2_IS4_EEE17__destruct_at_endB8ue170006EPS4_, symObjAddr: 0x10588, symBinAddr: 0x100014938, symSize: 0x4C }
  - { offsetInCU: 0x1C8EA, offset: 0x1C8EA, size: 0x8, addend: 0x0, symName: __ZNSt3__16vectorINS0_I4fracNS_9allocatorIS1_EEEENS2_IS4_EEE13__vdeallocateEv, symObjAddr: 0x105D4, symBinAddr: 0x100014984, symSize: 0x94 }
  - { offsetInCU: 0x1C911, offset: 0x1C911, size: 0x8, addend: 0x0, symName: __ZNSt3__16vectorINS0_I4fracNS_9allocatorIS1_EEEENS2_IS4_EEE11__vallocateB8ue170006Em, symObjAddr: 0x10668, symBinAddr: 0x100014A18, symSize: 0xB4 }
  - { offsetInCU: 0x1C953, offset: 0x1C953, size: 0x8, addend: 0x0, symName: __ZNKSt3__16vectorINS0_I4fracNS_9allocatorIS1_EEEENS2_IS4_EEE11__recommendB8ue170006Em, symObjAddr: 0x1071C, symBinAddr: 0x100014ACC, symSize: 0xB4 }
  - { offsetInCU: 0x1C9A6, offset: 0x1C9A6, size: 0x8, addend: 0x0, symName: __ZNSt3__16vectorI4fracNS_9allocatorIS1_EEEaSB8ue170006ERKS4_, symObjAddr: 0x1083C, symBinAddr: 0x100014BEC, symSize: 0x68 }
  - { offsetInCU: 0x1C9DC, offset: 0x1C9DC, size: 0x8, addend: 0x0, symName: __ZNSt3__16vectorI4fracNS_9allocatorIS1_EEE19__copy_assign_allocB8ue170006ERKS4_, symObjAddr: 0x108A4, symBinAddr: 0x100014C54, symSize: 0x2C }
  - { offsetInCU: 0x1CA0F, offset: 0x1CA0F, size: 0x8, addend: 0x0, symName: __ZNSt3__16vectorI4fracNS_9allocatorIS1_EEE6assignIPS1_Li0EEEvT_S7_, symObjAddr: 0x108D0, symBinAddr: 0x100014C80, symSize: 0x5C }
  - { offsetInCU: 0x1CA63, offset: 0x1CA63, size: 0x8, addend: 0x0, symName: __ZNSt3__16vectorI4fracNS_9allocatorIS1_EEE19__copy_assign_allocB8ue170006ERKS4_NS_17integral_constantIbLb0EEE, symObjAddr: 0x1092C, symBinAddr: 0x100014CDC, symSize: 0x14 }
  - { offsetInCU: 0x1CA9F, offset: 0x1CA9F, size: 0x8, addend: 0x0, symName: __ZNSt3__16vectorI4fracNS_9allocatorIS1_EEE18__assign_with_sizeB8ue170006IPS1_S6_EEvT_T0_l, symObjAddr: 0x10940, symBinAddr: 0x100014CF0, symSize: 0x164 }
  - { offsetInCU: 0x1CB4F, offset: 0x1CB4F, size: 0x8, addend: 0x0, symName: __ZNSt3__16vectorI4fracNS_9allocatorIS1_EEE18__construct_at_endIPS1_S6_EEvT_T0_m, symObjAddr: 0x10B44, symBinAddr: 0x100014EF4, symSize: 0x94 }
  - { offsetInCU: 0x1CBDD, offset: 0x1CBDD, size: 0x8, addend: 0x0, symName: __ZNSt3__14pairIP4fracS2_EC1B8ue170006ERKS2_S5_, symObjAddr: 0x10F04, symBinAddr: 0x1000152B4, symSize: 0x3C }
  - { offsetInCU: 0x1CC22, offset: 0x1CC22, size: 0x8, addend: 0x0, symName: __ZNSt3__14pairIP4fracS2_EC2B8ue170006ERKS2_S5_, symObjAddr: 0x10F40, symBinAddr: 0x1000152F0, symSize: 0x34 }
  - { offsetInCU: 0x1CC67, offset: 0x1CC67, size: 0x8, addend: 0x0, symName: __ZNSt3__129_AllocatorDestroyRangeReverseINS_9allocatorI4fracEEPS2_EC1B8ue170006ERS3_RS4_S7_, symObjAddr: 0x10FC0, symBinAddr: 0x100015370, symSize: 0x44 }
  - { offsetInCU: 0x1CCBD, offset: 0x1CCBD, size: 0x8, addend: 0x0, symName: __ZNSt3__116allocator_traitsINS_9allocatorI4fracEEE9constructB8ue170006IS2_JRS2_EvEEvRS3_PT_DpOT0_, symObjAddr: 0x11004, symBinAddr: 0x1000153B4, symSize: 0x34 }
  - { offsetInCU: 0x1CD14, offset: 0x1CD14, size: 0x8, addend: 0x0, symName: __ZNSt3__128__exception_guard_exceptionsINS_29_AllocatorDestroyRangeReverseINS_9allocatorI4fracEEPS3_EEE10__completeB8ue170006Ev, symObjAddr: 0x11038, symBinAddr: 0x1000153E8, symSize: 0x1C }
  - { offsetInCU: 0x1CD39, offset: 0x1CD39, size: 0x8, addend: 0x0, symName: __ZNSt3__128__exception_guard_exceptionsINS_29_AllocatorDestroyRangeReverseINS_9allocatorI4fracEEPS3_EEED1B8ue170006Ev, symObjAddr: 0x11054, symBinAddr: 0x100015404, symSize: 0x2C }
  - { offsetInCU: 0x1CD62, offset: 0x1CD62, size: 0x8, addend: 0x0, symName: __ZNSt3__128__exception_guard_exceptionsINS_29_AllocatorDestroyRangeReverseINS_9allocatorI4fracEEPS3_EEEC1B8ue170006ES6_, symObjAddr: 0x11080, symBinAddr: 0x100015430, symSize: 0x34 }
  - { offsetInCU: 0x1CD9A, offset: 0x1CD9A, size: 0x8, addend: 0x0, symName: __ZNSt3__128__exception_guard_exceptionsINS_29_AllocatorDestroyRangeReverseINS_9allocatorI4fracEEPS3_EEEC2B8ue170006ES6_, symObjAddr: 0x110B4, symBinAddr: 0x100015464, symSize: 0x30 }
  - { offsetInCU: 0x1CDD2, offset: 0x1CDD2, size: 0x8, addend: 0x0, symName: __ZNSt3__129_AllocatorDestroyRangeReverseINS_9allocatorI4fracEEPS2_EC2B8ue170006ERS3_RS4_S7_, symObjAddr: 0x110E4, symBinAddr: 0x100015494, symSize: 0x38 }
  - { offsetInCU: 0x1CE28, offset: 0x1CE28, size: 0x8, addend: 0x0, symName: __ZNSt3__19allocatorI4fracE9constructB8ue170006IS1_JRS1_EEEvPT_DpOT0_, symObjAddr: 0x1111C, symBinAddr: 0x1000154CC, symSize: 0x30 }
  - { offsetInCU: 0x1CE7D, offset: 0x1CE7D, size: 0x8, addend: 0x0, symName: __ZNSt3__128__exception_guard_exceptionsINS_29_AllocatorDestroyRangeReverseINS_9allocatorI4fracEEPS3_EEED2B8ue170006Ev, symObjAddr: 0x1114C, symBinAddr: 0x1000154FC, symSize: 0x48 }
  - { offsetInCU: 0x1CEA6, offset: 0x1CEA6, size: 0x8, addend: 0x0, symName: __ZNKSt3__129_AllocatorDestroyRangeReverseINS_9allocatorI4fracEEPS2_EclB8ue170006Ev, symObjAddr: 0x11194, symBinAddr: 0x100015544, symSize: 0x68 }
  - { offsetInCU: 0x1CECB, offset: 0x1CECB, size: 0x8, addend: 0x0, symName: __ZNSt3__116reverse_iteratorIP4fracEC1B8ue170006ES2_, symObjAddr: 0x1126C, symBinAddr: 0x10001561C, symSize: 0x34 }
  - { offsetInCU: 0x1CF02, offset: 0x1CF02, size: 0x8, addend: 0x0, symName: __ZNSt3__116reverse_iteratorIP4fracEppB8ue170006Ev, symObjAddr: 0x1130C, symBinAddr: 0x1000156BC, symSize: 0x20 }
  - { offsetInCU: 0x1CF27, offset: 0x1CF27, size: 0x8, addend: 0x0, symName: __ZNKSt3__116reverse_iteratorIP4fracE4baseB8ue170006Ev, symObjAddr: 0x1132C, symBinAddr: 0x1000156DC, symSize: 0x18 }
  - { offsetInCU: 0x1CF51, offset: 0x1CF51, size: 0x8, addend: 0x0, symName: __ZNSt3__119__to_address_helperINS_16reverse_iteratorIP4fracEEvE6__callB8ue170006ERKS4_, symObjAddr: 0x11344, symBinAddr: 0x1000156F4, symSize: 0x4C }
  - { offsetInCU: 0x1CF74, offset: 0x1CF74, size: 0x8, addend: 0x0, symName: __ZNKSt3__116reverse_iteratorIP4fracEptB8ue170006Ev, symObjAddr: 0x11390, symBinAddr: 0x100015740, symSize: 0x24 }
  - { offsetInCU: 0x1CF99, offset: 0x1CF99, size: 0x8, addend: 0x0, symName: __ZNKSt3__116reverse_iteratorIP4fracEdeB8ue170006Ev, symObjAddr: 0x113B4, symBinAddr: 0x100015764, symSize: 0x28 }
  - { offsetInCU: 0x1CFCC, offset: 0x1CFCC, size: 0x8, addend: 0x0, symName: __ZNSt3__116reverse_iteratorIP4fracEC2B8ue170006ES2_, symObjAddr: 0x113DC, symBinAddr: 0x10001578C, symSize: 0x28 }
  - { offsetInCU: 0x1D003, offset: 0x1D003, size: 0x8, addend: 0x0, symName: __ZNSt3__118__unwrap_iter_implIP4fracLb1EE8__unwrapB8ue170006ES2_, symObjAddr: 0x11404, symBinAddr: 0x1000157B4, symSize: 0x24 }
  - { offsetInCU: 0x1D026, offset: 0x1D026, size: 0x8, addend: 0x0, symName: __ZNSt3__118__unwrap_iter_implIP4fracLb1EE8__rewrapB8ue170006ES2_S2_, symObjAddr: 0x11428, symBinAddr: 0x1000157D8, symSize: 0x50 }
  - { offsetInCU: 0x1D057, offset: 0x1D057, size: 0x8, addend: 0x0, symName: __ZNKSt3__111__copy_loopINS_17_ClassicAlgPolicyEEclB8ue170006IP4fracS5_S5_EENS_4pairIT_T1_EES7_T0_S8_, symObjAddr: 0x11570, symBinAddr: 0x100015920, symSize: 0x8C }
  - { offsetInCU: 0x1D0DA, offset: 0x1D0DA, size: 0x8, addend: 0x0, symName: __ZNSt3__16vectorINS0_I4fracNS_9allocatorIS1_EEEENS2_IS4_EEE21_ConstructTransactionC1B8ue170006ERS6_m, symObjAddr: 0x11650, symBinAddr: 0x100015A00, symSize: 0x3C }
  - { offsetInCU: 0x1D121, offset: 0x1D121, size: 0x8, addend: 0x0, symName: __ZNSt3__116allocator_traitsINS_9allocatorINS_6vectorI4fracNS1_IS3_EEEEEEE9constructB8ue170006IS5_JRKS5_EvEEvRS6_PT_DpOT0_, symObjAddr: 0x1168C, symBinAddr: 0x100015A3C, symSize: 0x34 }
  - { offsetInCU: 0x1D178, offset: 0x1D178, size: 0x8, addend: 0x0, symName: __ZNSt3__16vectorINS0_I4fracNS_9allocatorIS1_EEEENS2_IS4_EEE21_ConstructTransactionD1B8ue170006Ev, symObjAddr: 0x116C0, symBinAddr: 0x100015A70, symSize: 0x2C }
  - { offsetInCU: 0x1D1A1, offset: 0x1D1A1, size: 0x8, addend: 0x0, symName: __ZNSt3__16vectorINS0_I4fracNS_9allocatorIS1_EEEENS2_IS4_EEE21_ConstructTransactionC2B8ue170006ERS6_m, symObjAddr: 0x116EC, symBinAddr: 0x100015A9C, symSize: 0x4C }
  - { offsetInCU: 0x1D1E8, offset: 0x1D1E8, size: 0x8, addend: 0x0, symName: __ZNSt3__19allocatorINS_6vectorI4fracNS0_IS2_EEEEE9constructB8ue170006IS4_JRKS4_EEEvPT_DpOT0_, symObjAddr: 0x11738, symBinAddr: 0x100015AE8, symSize: 0x30 }
  - { offsetInCU: 0x1D23D, offset: 0x1D23D, size: 0x8, addend: 0x0, symName: __ZNSt3__16vectorI4fracNS_9allocatorIS1_EEEC1ERKS4_, symObjAddr: 0x11768, symBinAddr: 0x100015B18, symSize: 0x34 }
  - { offsetInCU: 0x1D277, offset: 0x1D277, size: 0x8, addend: 0x0, symName: __ZNSt3__16vectorI4fracNS_9allocatorIS1_EEEC2ERKS4_, symObjAddr: 0x1179C, symBinAddr: 0x100015B4C, symSize: 0x94 }
  - { offsetInCU: 0x1D2B1, offset: 0x1D2B1, size: 0x8, addend: 0x0, symName: __ZNSt3__116allocator_traitsINS_9allocatorI4fracEEE37select_on_container_copy_constructionB8ue170006IS3_vvEES3_RKS3_, symObjAddr: 0x11830, symBinAddr: 0x100015BE0, symSize: 0x10 }
  - { offsetInCU: 0x1D2E5, offset: 0x1D2E5, size: 0x8, addend: 0x0, symName: __ZNSt3__117__compressed_pairIP4fracNS_9allocatorIS1_EEEC1B8ue170006IDnS4_EEOT_OT0_, symObjAddr: 0x11840, symBinAddr: 0x100015BF0, symSize: 0x3C }
  - { offsetInCU: 0x1D33C, offset: 0x1D33C, size: 0x8, addend: 0x0, symName: __ZNSt3__16vectorI4fracNS_9allocatorIS1_EEE16__init_with_sizeB8ue170006IPS1_S6_EEvT_T0_m, symObjAddr: 0x1187C, symBinAddr: 0x100015C2C, symSize: 0xC0 }
  - { offsetInCU: 0x1D3AF, offset: 0x1D3AF, size: 0x8, addend: 0x0, symName: __ZNSt3__117__compressed_pairIP4fracNS_9allocatorIS1_EEEC2B8ue170006IDnS4_EEOT_OT0_, symObjAddr: 0x1193C, symBinAddr: 0x100015CEC, symSize: 0x44 }
  - { offsetInCU: 0x1D406, offset: 0x1D406, size: 0x8, addend: 0x0, symName: __ZNSt3__122__compressed_pair_elemINS_9allocatorI4fracEELi1ELb1EEC2B8ue170006IS3_vEEOT_, symObjAddr: 0x11980, symBinAddr: 0x100015D30, symSize: 0x18 }
  - { offsetInCU: 0x1D447, offset: 0x1D447, size: 0x8, addend: 0x0, symName: __ZNSt3__128__exception_guard_exceptionsINS_6vectorI4fracNS_9allocatorIS2_EEE16__destroy_vectorEE10__completeB8ue170006Ev, symObjAddr: 0x119D8, symBinAddr: 0x100015D88, symSize: 0x1C }
  - { offsetInCU: 0x1D46C, offset: 0x1D46C, size: 0x8, addend: 0x0, symName: __ZNSt3__128__exception_guard_exceptionsINS_6vectorI4fracNS_9allocatorIS2_EEE16__destroy_vectorEED1B8ue170006Ev, symObjAddr: 0x119F4, symBinAddr: 0x100015DA4, symSize: 0x2C }
  - { offsetInCU: 0x1D495, offset: 0x1D495, size: 0x8, addend: 0x0, symName: __ZNSt3__128__exception_guard_exceptionsINS_6vectorI4fracNS_9allocatorIS2_EEE16__destroy_vectorEEC1B8ue170006ES6_, symObjAddr: 0x11A20, symBinAddr: 0x100015DD0, symSize: 0x34 }
  - { offsetInCU: 0x1D4CC, offset: 0x1D4CC, size: 0x8, addend: 0x0, symName: __ZNSt3__128__exception_guard_exceptionsINS_6vectorI4fracNS_9allocatorIS2_EEE16__destroy_vectorEEC2B8ue170006ES6_, symObjAddr: 0x11A54, symBinAddr: 0x100015E04, symSize: 0x24 }
  - { offsetInCU: 0x1D503, offset: 0x1D503, size: 0x8, addend: 0x0, symName: __ZNSt3__128__exception_guard_exceptionsINS_6vectorI4fracNS_9allocatorIS2_EEE16__destroy_vectorEED2B8ue170006Ev, symObjAddr: 0x11A78, symBinAddr: 0x100015E28, symSize: 0x48 }
  - { offsetInCU: 0x1D52C, offset: 0x1D52C, size: 0x8, addend: 0x0, symName: __ZNSt3__16vectorINS0_I4fracNS_9allocatorIS1_EEEENS2_IS4_EEE21_ConstructTransactionD2B8ue170006Ev, symObjAddr: 0x11AC0, symBinAddr: 0x100015E70, symSize: 0x20 }
  - { offsetInCU: 0x1D555, offset: 0x1D555, size: 0x8, addend: 0x0, symName: __ZNKSt3__16vectorINS0_I4fracNS_9allocatorIS1_EEEENS2_IS4_EEE17__annotate_shrinkB8ue170006Em, symObjAddr: 0x11AE0, symBinAddr: 0x100015E90, symSize: 0xD0 }
  - { offsetInCU: 0x1D589, offset: 0x1D589, size: 0x8, addend: 0x0, symName: __ZNSt3__16vectorINS0_I4fracNS_9allocatorIS1_EEEENS2_IS4_EEE5clearB8ue170006Ev, symObjAddr: 0x11BB0, symBinAddr: 0x100015F60, symSize: 0x44 }
  - { offsetInCU: 0x1D5BD, offset: 0x1D5BD, size: 0x8, addend: 0x0, symName: __ZNSt3__16vectorINS0_I4fracNS_9allocatorIS1_EEEENS2_IS4_EEE9__end_capB8ue170006Ev, symObjAddr: 0x11BF4, symBinAddr: 0x100015FA4, symSize: 0x28 }
  - { offsetInCU: 0x1D5E2, offset: 0x1D5E2, size: 0x8, addend: 0x0, symName: __ZNSt3__117__compressed_pairIPNS_6vectorI4fracNS_9allocatorIS2_EEEENS3_IS5_EEE5firstB8ue170006Ev, symObjAddr: 0x11C1C, symBinAddr: 0x100015FCC, symSize: 0x24 }
  - { offsetInCU: 0x1D607, offset: 0x1D607, size: 0x8, addend: 0x0, symName: __ZNSt3__122__compressed_pair_elemIPNS_6vectorI4fracNS_9allocatorIS2_EEEELi0ELb0EE5__getB8ue170006Ev, symObjAddr: 0x11C40, symBinAddr: 0x100015FF0, symSize: 0x14 }
  - { offsetInCU: 0x1D62B, offset: 0x1D62B, size: 0x8, addend: 0x0, symName: __ZNKSt3__16vectorINS0_I4fracNS_9allocatorIS1_EEEENS2_IS4_EEE8max_sizeEv, symObjAddr: 0x11C54, symBinAddr: 0x100016004, symSize: 0x74 }
  - { offsetInCU: 0x1D652, offset: 0x1D652, size: 0x8, addend: 0x0, symName: __ZNKSt3__16vectorINS0_I4fracNS_9allocatorIS1_EEEENS2_IS4_EEE20__throw_length_errorB8ue170006Ev, symObjAddr: 0x11CC8, symBinAddr: 0x100016078, symSize: 0x1C }
  - { offsetInCU: 0x1D677, offset: 0x1D677, size: 0x8, addend: 0x0, symName: __ZNKSt3__16vectorINS0_I4fracNS_9allocatorIS1_EEEENS2_IS4_EEE14__annotate_newB8ue170006Em, symObjAddr: 0x11D24, symBinAddr: 0x1000160D4, symSize: 0xC8 }
  - { offsetInCU: 0x1D6B5, offset: 0x1D6B5, size: 0x8, addend: 0x0, symName: __ZNSt3__116allocator_traitsINS_9allocatorINS_6vectorI4fracNS1_IS3_EEEEEEE8max_sizeB8ue170006IS6_vEEmRKS6_, symObjAddr: 0x11DEC, symBinAddr: 0x10001619C, symSize: 0x24 }
  - { offsetInCU: 0x1D6E3, offset: 0x1D6E3, size: 0x8, addend: 0x0, symName: __ZNKSt3__16vectorINS0_I4fracNS_9allocatorIS1_EEEENS2_IS4_EEE7__allocB8ue170006Ev, symObjAddr: 0x11E10, symBinAddr: 0x1000161C0, symSize: 0x28 }
  - { offsetInCU: 0x1D708, offset: 0x1D708, size: 0x8, addend: 0x0, symName: __ZNKSt3__19allocatorINS_6vectorI4fracNS0_IS2_EEEEE8max_sizeB8ue170006Ev, symObjAddr: 0x11E38, symBinAddr: 0x1000161E8, symSize: 0x18 }
  - { offsetInCU: 0x1D72D, offset: 0x1D72D, size: 0x8, addend: 0x0, symName: __ZNKSt3__117__compressed_pairIPNS_6vectorI4fracNS_9allocatorIS2_EEEENS3_IS5_EEE6secondB8ue170006Ev, symObjAddr: 0x11E50, symBinAddr: 0x100016200, symSize: 0x24 }
  - { offsetInCU: 0x1D752, offset: 0x1D752, size: 0x8, addend: 0x0, symName: __ZNKSt3__122__compressed_pair_elemINS_9allocatorINS_6vectorI4fracNS1_IS3_EEEEEELi1ELb1EE5__getB8ue170006Ev, symObjAddr: 0x11E74, symBinAddr: 0x100016224, symSize: 0x14 }
  - { offsetInCU: 0x1D777, offset: 0x1D777, size: 0x8, addend: 0x0, symName: __ZNSt3__19allocatorINS_6vectorI4fracNS0_IS2_EEEEE8allocateB8ue170006Em, symObjAddr: 0x11E88, symBinAddr: 0x100016238, symSize: 0x8C }
  - { offsetInCU: 0x1D7A9, offset: 0x1D7A9, size: 0x8, addend: 0x0, symName: __ZrsRNSt3__113basic_istreamIcNS_11char_traitsIcEEEER4frac, symObjAddr: 0x11F14, symBinAddr: 0x1000162C4, symSize: 0x21C }
  - { offsetInCU: 0x1D84C, offset: 0x1D84C, size: 0x8, addend: 0x0, symName: __ZNSt3__112basic_stringIcNS_11char_traitsIcEENS_9allocatorIcEEEixB8ue170006Em, symObjAddr: 0x12440, symBinAddr: 0x1000167F0, symSize: 0x30 }
  - { offsetInCU: 0x1D880, offset: 0x1D880, size: 0x8, addend: 0x0, symName: __ZNSt3__115basic_streambufIcNS_11char_traitsIcEEE5sgetcB8ue170006Ev, symObjAddr: 0x12470, symBinAddr: 0x100016820, symSize: 0x70 }
  - { offsetInCU: 0x1D8A5, offset: 0x1D8A5, size: 0x8, addend: 0x0, symName: __ZNKSt3__15ctypeIcE2isB8ue170006Ejc, symObjAddr: 0x124E0, symBinAddr: 0x100016890, symSize: 0x7C }
  - { offsetInCU: 0x1D8E7, offset: 0x1D8E7, size: 0x8, addend: 0x0, symName: __Z7isasciii, symObjAddr: 0x1255C, symBinAddr: 0x10001690C, symSize: 0x24 }
  - { offsetInCU: 0x1D914, offset: 0x1D914, size: 0x8, addend: 0x0, symName: __ZNSt3__112basic_stringIcNS_11char_traitsIcEENS_9allocatorIcEEE13__get_pointerB8ue170006Ev, symObjAddr: 0x12580, symBinAddr: 0x100016930, symSize: 0x54 }
  - { offsetInCU: 0x1D938, offset: 0x1D938, size: 0x8, addend: 0x0, symName: __ZNSt3__16vectorINS0_I4fracNS_9allocatorIS1_EEEENS2_IS4_EEEaSB8ue170006ERKS6_, symObjAddr: 0x125D4, symBinAddr: 0x100016984, symSize: 0x68 }
  - { offsetInCU: 0x1D96E, offset: 0x1D96E, size: 0x8, addend: 0x0, symName: __ZNSt3__16vectorINS0_I4fracNS_9allocatorIS1_EEEENS2_IS4_EEE19__copy_assign_allocB8ue170006ERKS6_, symObjAddr: 0x1263C, symBinAddr: 0x1000169EC, symSize: 0x2C }
  - { offsetInCU: 0x1D9A1, offset: 0x1D9A1, size: 0x8, addend: 0x0, symName: __ZNSt3__16vectorINS0_I4fracNS_9allocatorIS1_EEEENS2_IS4_EEE6assignIPS4_Li0EEEvT_S9_, symObjAddr: 0x12668, symBinAddr: 0x100016A18, symSize: 0x5C }
  - { offsetInCU: 0x1D9F5, offset: 0x1D9F5, size: 0x8, addend: 0x0, symName: __ZNSt3__16vectorINS0_I4fracNS_9allocatorIS1_EEEENS2_IS4_EEE19__copy_assign_allocB8ue170006ERKS6_NS_17integral_constantIbLb0EEE, symObjAddr: 0x126C4, symBinAddr: 0x100016A74, symSize: 0x14 }
  - { offsetInCU: 0x1DA31, offset: 0x1DA31, size: 0x8, addend: 0x0, symName: __ZNSt3__16vectorINS0_I4fracNS_9allocatorIS1_EEEENS2_IS4_EEE18__assign_with_sizeB8ue170006IPS4_S8_EEvT_T0_l, symObjAddr: 0x126D8, symBinAddr: 0x100016A88, symSize: 0x164 }
  - { offsetInCU: 0x1DAE1, offset: 0x1DAE1, size: 0x8, addend: 0x0, symName: __ZNSt3__16vectorINS0_I4fracNS_9allocatorIS1_EEEENS2_IS4_EEE18__construct_at_endIPS4_S8_EEvT_T0_m, symObjAddr: 0x128DC, symBinAddr: 0x100016C8C, symSize: 0x94 }
  - { offsetInCU: 0x1DB6F, offset: 0x1DB6F, size: 0x8, addend: 0x0, symName: __ZNSt3__14pairIPNS_6vectorI4fracNS_9allocatorIS2_EEEES6_EC1B8ue170006ERKS6_S9_, symObjAddr: 0x12CA4, symBinAddr: 0x100017054, symSize: 0x3C }
  - { offsetInCU: 0x1DBB4, offset: 0x1DBB4, size: 0x8, addend: 0x0, symName: __ZNSt3__14pairIPNS_6vectorI4fracNS_9allocatorIS2_EEEES6_EC2B8ue170006ERKS6_S9_, symObjAddr: 0x12CE0, symBinAddr: 0x100017090, symSize: 0x34 }
  - { offsetInCU: 0x1DBF9, offset: 0x1DBF9, size: 0x8, addend: 0x0, symName: __ZNSt3__129_AllocatorDestroyRangeReverseINS_9allocatorINS_6vectorI4fracNS1_IS3_EEEEEEPS5_EC1B8ue170006ERS6_RS7_SA_, symObjAddr: 0x12D60, symBinAddr: 0x100017110, symSize: 0x44 }
  - { offsetInCU: 0x1DC4F, offset: 0x1DC4F, size: 0x8, addend: 0x0, symName: __ZNSt3__116allocator_traitsINS_9allocatorINS_6vectorI4fracNS1_IS3_EEEEEEE9constructB8ue170006IS5_JRS5_EvEEvRS6_PT_DpOT0_, symObjAddr: 0x12DA4, symBinAddr: 0x100017154, symSize: 0x34 }
  - { offsetInCU: 0x1DCA6, offset: 0x1DCA6, size: 0x8, addend: 0x0, symName: __ZNSt3__128__exception_guard_exceptionsINS_29_AllocatorDestroyRangeReverseINS_9allocatorINS_6vectorI4fracNS2_IS4_EEEEEEPS6_EEE10__completeB8ue170006Ev, symObjAddr: 0x12DD8, symBinAddr: 0x100017188, symSize: 0x1C }
  - { offsetInCU: 0x1DCCB, offset: 0x1DCCB, size: 0x8, addend: 0x0, symName: __ZNSt3__128__exception_guard_exceptionsINS_29_AllocatorDestroyRangeReverseINS_9allocatorINS_6vectorI4fracNS2_IS4_EEEEEEPS6_EEED1B8ue170006Ev, symObjAddr: 0x12DF4, symBinAddr: 0x1000171A4, symSize: 0x2C }
  - { offsetInCU: 0x1DCF4, offset: 0x1DCF4, size: 0x8, addend: 0x0, symName: __ZNSt3__128__exception_guard_exceptionsINS_29_AllocatorDestroyRangeReverseINS_9allocatorINS_6vectorI4fracNS2_IS4_EEEEEEPS6_EEEC1B8ue170006ES9_, symObjAddr: 0x12E20, symBinAddr: 0x1000171D0, symSize: 0x34 }
  - { offsetInCU: 0x1DD2C, offset: 0x1DD2C, size: 0x8, addend: 0x0, symName: __ZNSt3__128__exception_guard_exceptionsINS_29_AllocatorDestroyRangeReverseINS_9allocatorINS_6vectorI4fracNS2_IS4_EEEEEEPS6_EEEC2B8ue170006ES9_, symObjAddr: 0x12E54, symBinAddr: 0x100017204, symSize: 0x30 }
  - { offsetInCU: 0x1DD64, offset: 0x1DD64, size: 0x8, addend: 0x0, symName: __ZNSt3__129_AllocatorDestroyRangeReverseINS_9allocatorINS_6vectorI4fracNS1_IS3_EEEEEEPS5_EC2B8ue170006ERS6_RS7_SA_, symObjAddr: 0x12E84, symBinAddr: 0x100017234, symSize: 0x38 }
  - { offsetInCU: 0x1DDBA, offset: 0x1DDBA, size: 0x8, addend: 0x0, symName: __ZNSt3__19allocatorINS_6vectorI4fracNS0_IS2_EEEEE9constructB8ue170006IS4_JRS4_EEEvPT_DpOT0_, symObjAddr: 0x12EBC, symBinAddr: 0x10001726C, symSize: 0x30 }
  - { offsetInCU: 0x1DE0F, offset: 0x1DE0F, size: 0x8, addend: 0x0, symName: __ZNSt3__128__exception_guard_exceptionsINS_29_AllocatorDestroyRangeReverseINS_9allocatorINS_6vectorI4fracNS2_IS4_EEEEEEPS6_EEED2B8ue170006Ev, symObjAddr: 0x12EEC, symBinAddr: 0x10001729C, symSize: 0x48 }
  - { offsetInCU: 0x1DE38, offset: 0x1DE38, size: 0x8, addend: 0x0, symName: __ZNKSt3__129_AllocatorDestroyRangeReverseINS_9allocatorINS_6vectorI4fracNS1_IS3_EEEEEEPS5_EclB8ue170006Ev, symObjAddr: 0x12F34, symBinAddr: 0x1000172E4, symSize: 0x68 }
  - { offsetInCU: 0x1DE5D, offset: 0x1DE5D, size: 0x8, addend: 0x0, symName: __ZNSt3__116reverse_iteratorIPNS_6vectorI4fracNS_9allocatorIS2_EEEEEC1B8ue170006ES6_, symObjAddr: 0x1300C, symBinAddr: 0x1000173BC, symSize: 0x34 }
  - { offsetInCU: 0x1DE94, offset: 0x1DE94, size: 0x8, addend: 0x0, symName: __ZNSt3__116reverse_iteratorIPNS_6vectorI4fracNS_9allocatorIS2_EEEEEppB8ue170006Ev, symObjAddr: 0x130AC, symBinAddr: 0x10001745C, symSize: 0x20 }
  - { offsetInCU: 0x1DEB9, offset: 0x1DEB9, size: 0x8, addend: 0x0, symName: __ZNKSt3__116reverse_iteratorIPNS_6vectorI4fracNS_9allocatorIS2_EEEEE4baseB8ue170006Ev, symObjAddr: 0x130CC, symBinAddr: 0x10001747C, symSize: 0x18 }
  - { offsetInCU: 0x1DEE3, offset: 0x1DEE3, size: 0x8, addend: 0x0, symName: __ZNSt3__119__to_address_helperINS_16reverse_iteratorIPNS_6vectorI4fracNS_9allocatorIS3_EEEEEEvE6__callB8ue170006ERKS8_, symObjAddr: 0x130E4, symBinAddr: 0x100017494, symSize: 0x4C }
  - { offsetInCU: 0x1DF06, offset: 0x1DF06, size: 0x8, addend: 0x0, symName: __ZNKSt3__116reverse_iteratorIPNS_6vectorI4fracNS_9allocatorIS2_EEEEEptB8ue170006Ev, symObjAddr: 0x13130, symBinAddr: 0x1000174E0, symSize: 0x24 }
  - { offsetInCU: 0x1DF2B, offset: 0x1DF2B, size: 0x8, addend: 0x0, symName: __ZNKSt3__116reverse_iteratorIPNS_6vectorI4fracNS_9allocatorIS2_EEEEEdeB8ue170006Ev, symObjAddr: 0x13154, symBinAddr: 0x100017504, symSize: 0x28 }
  - { offsetInCU: 0x1DF5E, offset: 0x1DF5E, size: 0x8, addend: 0x0, symName: __ZNSt3__116reverse_iteratorIPNS_6vectorI4fracNS_9allocatorIS2_EEEEEC2B8ue170006ES6_, symObjAddr: 0x1317C, symBinAddr: 0x10001752C, symSize: 0x28 }
  - { offsetInCU: 0x1DF95, offset: 0x1DF95, size: 0x8, addend: 0x0, symName: __ZNSt3__118__unwrap_iter_implIPNS_6vectorI4fracNS_9allocatorIS2_EEEELb1EE8__unwrapB8ue170006ES6_, symObjAddr: 0x131A4, symBinAddr: 0x100017554, symSize: 0x24 }
  - { offsetInCU: 0x1DFB8, offset: 0x1DFB8, size: 0x8, addend: 0x0, symName: __ZNSt3__118__unwrap_iter_implIPNS_6vectorI4fracNS_9allocatorIS2_EEEELb1EE8__rewrapB8ue170006ES6_S6_, symObjAddr: 0x131C8, symBinAddr: 0x100017578, symSize: 0x58 }
  - { offsetInCU: 0x1DFE9, offset: 0x1DFE9, size: 0x8, addend: 0x0, symName: __ZNKSt3__111__copy_loopINS_17_ClassicAlgPolicyEEclB8ue170006IPNS_6vectorI4fracNS_9allocatorIS5_EEEES9_S9_EENS_4pairIT_T1_EESB_T0_SC_, symObjAddr: 0x13318, symBinAddr: 0x1000176C8, symSize: 0x88 }
  - { offsetInCU: 0x1E052, offset: 0x1E052, size: 0x8, addend: 0x0, symName: __ZlsRNSt3__113basic_ostreamIcNS_11char_traitsIcEEEER4frac, symObjAddr: 0x133F4, symBinAddr: 0x1000177A4, symSize: 0x68 }
  - { offsetInCU: 0x1E08D, offset: 0x1E08D, size: 0x8, addend: 0x0, symName: __ZNKSt3__16vectorINS0_I4fracNS_9allocatorIS1_EEEENS2_IS4_EEEixB8ue170006Em, symObjAddr: 0x13490, symBinAddr: 0x100017840, symSize: 0x2C }
  - { offsetInCU: 0x1E0C3, offset: 0x1E0C3, size: 0x8, addend: 0x0, symName: __ZN6matrixI4fracE10isSameSizeERKS1_, symObjAddr: 0x134BC, symBinAddr: 0x10001786C, symSize: 0x88 }
  - { offsetInCU: 0x1E0F7, offset: 0x1E0F7, size: 0x8, addend: 0x0, symName: __ZNK4fracmiERKS_, symObjAddr: 0x13544, symBinAddr: 0x1000178F4, symSize: 0xC0 }
  - { offsetInCU: 0x1E17F, offset: 0x1E17F, size: 0x8, addend: 0x0, symName: __ZN6matrixI4fracE14createIdentityEi, symObjAddr: 0x13604, symBinAddr: 0x1000179B4, symSize: 0x94 }
  - { offsetInCU: 0x1E1EF, offset: 0x1E1EF, size: 0x8, addend: 0x0, symName: __ZNK4fracdvERKS_, symObjAddr: 0x136C4, symBinAddr: 0x100017A74, symSize: 0xC8 }
  - { offsetInCU: 0x1E268, offset: 0x1E268, size: 0x8, addend: 0x0, symName: __ZNSt3__16vectorI4fracNS_9allocatorIS1_EEE4swapERS4_, symObjAddr: 0x1378C, symBinAddr: 0x100017B3C, symSize: 0x84 }
  - { offsetInCU: 0x1E29D, offset: 0x1E29D, size: 0x8, addend: 0x0, symName: __Z3AbsI4fracET_S1_, symObjAddr: 0x13860, symBinAddr: 0x100017C10, symSize: 0x80 }
  - { offsetInCU: 0x1E2D4, offset: 0x1E2D4, size: 0x8, addend: 0x0, symName: __ZNK4fracgtERKS_, symObjAddr: 0x138E0, symBinAddr: 0x100017C90, symSize: 0x84 }
  - { offsetInCU: 0x1E35B, offset: 0x1E35B, size: 0x8, addend: 0x0, symName: __ZNK4fraceqERKi, symObjAddr: 0x13964, symBinAddr: 0x100017D14, symSize: 0x5C }
  - { offsetInCU: 0x1E3AA, offset: 0x1E3AA, size: 0x8, addend: 0x0, symName: __ZNK4fracltERKS_, symObjAddr: 0x139C0, symBinAddr: 0x100017D70, symSize: 0x84 }
  - { offsetInCU: 0x1E431, offset: 0x1E431, size: 0x8, addend: 0x0, symName: __ZN6matrixI4fracEC1Eii, symObjAddr: 0x13A44, symBinAddr: 0x100017DF4, symSize: 0x3C }
  - { offsetInCU: 0x1E478, offset: 0x1E478, size: 0x8, addend: 0x0, symName: __ZN4fracaSERKi, symObjAddr: 0x13A80, symBinAddr: 0x100017E30, symSize: 0x2C }
  - { offsetInCU: 0x1E4AB, offset: 0x1E4AB, size: 0x8, addend: 0x0, symName: __ZN6matrixI4fracEC2Eii, symObjAddr: 0x13AD8, symBinAddr: 0x100017E88, symSize: 0x7C }
  - { offsetInCU: 0x1E4F2, offset: 0x1E4F2, size: 0x8, addend: 0x0, symName: __ZNKSt3__16__lessIvvEclB8ue170006IiiEEbRKT_RKT0_, symObjAddr: 0x13BA8, symBinAddr: 0x100017F58, symSize: 0x34 }
  - { offsetInCU: 0x1E545, offset: 0x1E545, size: 0x8, addend: 0x0, symName: __ZN6matrixI4fracE9copyRightERKS1_, symObjAddr: 0x13BDC, symBinAddr: 0x100017F8C, symSize: 0x108 }
  - { offsetInCU: 0x1E5B4, offset: 0x1E5B4, size: 0x8, addend: 0x0, symName: __ZNSt3__16vectorI4fracNS_9allocatorIS1_EEE9push_backB8ue170006ERKS1_, symObjAddr: 0x13CE4, symBinAddr: 0x100018094, symSize: 0x6C }
  - { offsetInCU: 0x1E5EA, offset: 0x1E5EA, size: 0x8, addend: 0x0, symName: __ZNSt3__16vectorI4fracNS_9allocatorIS1_EEE22__construct_one_at_endB8ue170006IJRKS1_EEEvDpOT_, symObjAddr: 0x13D50, symBinAddr: 0x100018100, symSize: 0x98 }
  - { offsetInCU: 0x1E637, offset: 0x1E637, size: 0x8, addend: 0x0, symName: __ZNSt3__16vectorI4fracNS_9allocatorIS1_EEE21__push_back_slow_pathIRKS1_EEvOT_, symObjAddr: 0x13DE8, symBinAddr: 0x100018198, symSize: 0xE0 }
  - { offsetInCU: 0x1E694, offset: 0x1E694, size: 0x8, addend: 0x0, symName: __ZNSt3__114__split_bufferI4fracRNS_9allocatorIS1_EEEC1EmmS4_, symObjAddr: 0x13EC8, symBinAddr: 0x100018278, symSize: 0x44 }
  - { offsetInCU: 0x1E6E9, offset: 0x1E6E9, size: 0x8, addend: 0x0, symName: __ZNSt3__114__split_bufferI4fracRNS_9allocatorIS1_EEED1Ev, symObjAddr: 0x1401C, symBinAddr: 0x1000183CC, symSize: 0x2C }
  - { offsetInCU: 0x1E714, offset: 0x1E714, size: 0x8, addend: 0x0, symName: __ZNSt3__114__split_bufferI4fracRNS_9allocatorIS1_EEEC2EmmS4_, symObjAddr: 0x14048, symBinAddr: 0x1000183F8, symSize: 0xD4 }
  - { offsetInCU: 0x1E787, offset: 0x1E787, size: 0x8, addend: 0x0, symName: __ZNSt3__117__compressed_pairIP4fracRNS_9allocatorIS1_EEEC1B8ue170006IDnS5_EEOT_OT0_, symObjAddr: 0x1411C, symBinAddr: 0x1000184CC, symSize: 0x3C }
  - { offsetInCU: 0x1E7DE, offset: 0x1E7DE, size: 0x8, addend: 0x0, symName: __ZNSt3__114__split_bufferI4fracRNS_9allocatorIS1_EEE7__allocB8ue170006Ev, symObjAddr: 0x14158, symBinAddr: 0x100018508, symSize: 0x28 }
  - { offsetInCU: 0x1E803, offset: 0x1E803, size: 0x8, addend: 0x0, symName: __ZNSt3__114__split_bufferI4fracRNS_9allocatorIS1_EEE9__end_capB8ue170006Ev, symObjAddr: 0x14180, symBinAddr: 0x100018530, symSize: 0x28 }
  - { offsetInCU: 0x1E828, offset: 0x1E828, size: 0x8, addend: 0x0, symName: __ZNSt3__117__compressed_pairIP4fracRNS_9allocatorIS1_EEEC2B8ue170006IDnS5_EEOT_OT0_, symObjAddr: 0x141A8, symBinAddr: 0x100018558, symSize: 0x48 }
  - { offsetInCU: 0x1E87F, offset: 0x1E87F, size: 0x8, addend: 0x0, symName: __ZNSt3__122__compressed_pair_elemIRNS_9allocatorI4fracEELi1ELb0EEC2B8ue170006IS4_vEEOT_, symObjAddr: 0x141F0, symBinAddr: 0x1000185A0, symSize: 0x20 }
  - { offsetInCU: 0x1E8C0, offset: 0x1E8C0, size: 0x8, addend: 0x0, symName: __ZNSt3__117__compressed_pairIP4fracRNS_9allocatorIS1_EEE6secondB8ue170006Ev, symObjAddr: 0x14210, symBinAddr: 0x1000185C0, symSize: 0x28 }
  - { offsetInCU: 0x1E8E5, offset: 0x1E8E5, size: 0x8, addend: 0x0, symName: __ZNSt3__122__compressed_pair_elemIRNS_9allocatorI4fracEELi1ELb0EE5__getB8ue170006Ev, symObjAddr: 0x14238, symBinAddr: 0x1000185E8, symSize: 0x18 }
  - { offsetInCU: 0x1E90A, offset: 0x1E90A, size: 0x8, addend: 0x0, symName: __ZNSt3__117__compressed_pairIP4fracRNS_9allocatorIS1_EEE5firstB8ue170006Ev, symObjAddr: 0x14250, symBinAddr: 0x100018600, symSize: 0x24 }
  - { offsetInCU: 0x1E92F, offset: 0x1E92F, size: 0x8, addend: 0x0, symName: __ZNSt3__129_AllocatorDestroyRangeReverseINS_9allocatorI4fracEENS_16reverse_iteratorIPS2_EEEC1B8ue170006ERS3_RS6_S9_, symObjAddr: 0x143E4, symBinAddr: 0x100018794, symSize: 0x44 }
  - { offsetInCU: 0x1E985, offset: 0x1E985, size: 0x8, addend: 0x0, symName: __ZNSt3__128__exception_guard_exceptionsINS_29_AllocatorDestroyRangeReverseINS_9allocatorI4fracEENS_16reverse_iteratorIPS3_EEEEE10__completeB8ue170006Ev, symObjAddr: 0x14428, symBinAddr: 0x1000187D8, symSize: 0x1C }
  - { offsetInCU: 0x1E9AA, offset: 0x1E9AA, size: 0x8, addend: 0x0, symName: __ZNSt3__128__exception_guard_exceptionsINS_29_AllocatorDestroyRangeReverseINS_9allocatorI4fracEENS_16reverse_iteratorIPS3_EEEEED1B8ue170006Ev, symObjAddr: 0x14444, symBinAddr: 0x1000187F4, symSize: 0x2C }
  - { offsetInCU: 0x1E9D3, offset: 0x1E9D3, size: 0x8, addend: 0x0, symName: __ZNSt3__128__exception_guard_exceptionsINS_29_AllocatorDestroyRangeReverseINS_9allocatorI4fracEENS_16reverse_iteratorIPS3_EEEEEC1B8ue170006ES8_, symObjAddr: 0x14470, symBinAddr: 0x100018820, symSize: 0x34 }
  - { offsetInCU: 0x1EA0B, offset: 0x1EA0B, size: 0x8, addend: 0x0, symName: __ZNSt3__128__exception_guard_exceptionsINS_29_AllocatorDestroyRangeReverseINS_9allocatorI4fracEENS_16reverse_iteratorIPS3_EEEEEC2B8ue170006ES8_, symObjAddr: 0x144A4, symBinAddr: 0x100018854, symSize: 0x30 }
  - { offsetInCU: 0x1EA43, offset: 0x1EA43, size: 0x8, addend: 0x0, symName: __ZNSt3__129_AllocatorDestroyRangeReverseINS_9allocatorI4fracEENS_16reverse_iteratorIPS2_EEEC2B8ue170006ERS3_RS6_S9_, symObjAddr: 0x144D4, symBinAddr: 0x100018884, symSize: 0x38 }
  - { offsetInCU: 0x1EA99, offset: 0x1EA99, size: 0x8, addend: 0x0, symName: __ZNSt3__128__exception_guard_exceptionsINS_29_AllocatorDestroyRangeReverseINS_9allocatorI4fracEENS_16reverse_iteratorIPS3_EEEEED2B8ue170006Ev, symObjAddr: 0x1450C, symBinAddr: 0x1000188BC, symSize: 0x48 }
  - { offsetInCU: 0x1EAC2, offset: 0x1EAC2, size: 0x8, addend: 0x0, symName: __ZNKSt3__129_AllocatorDestroyRangeReverseINS_9allocatorI4fracEENS_16reverse_iteratorIPS2_EEEclB8ue170006Ev, symObjAddr: 0x14554, symBinAddr: 0x100018904, symSize: 0xB4 }
  - { offsetInCU: 0x1EAE8, offset: 0x1EAE8, size: 0x8, addend: 0x0, symName: __ZNSt3__116reverse_iteratorINS0_IP4fracEEEC1B8ue170006ES3_, symObjAddr: 0x14678, symBinAddr: 0x100018A28, symSize: 0x3C }
  - { offsetInCU: 0x1EB1F, offset: 0x1EB1F, size: 0x8, addend: 0x0, symName: __ZNSt3__116reverse_iteratorINS0_IP4fracEEEppB8ue170006Ev, symObjAddr: 0x14738, symBinAddr: 0x100018AE8, symSize: 0x30 }
  - { offsetInCU: 0x1EB44, offset: 0x1EB44, size: 0x8, addend: 0x0, symName: __ZNKSt3__116reverse_iteratorINS0_IP4fracEEE4baseB8ue170006Ev, symObjAddr: 0x14768, symBinAddr: 0x100018B18, symSize: 0x24 }
  - { offsetInCU: 0x1EB6E, offset: 0x1EB6E, size: 0x8, addend: 0x0, symName: __ZNSt3__119__to_address_helperINS_16reverse_iteratorINS1_IP4fracEEEEvE6__callB8ue170006ERKS5_, symObjAddr: 0x1478C, symBinAddr: 0x100018B3C, symSize: 0x4C }
  - { offsetInCU: 0x1EB91, offset: 0x1EB91, size: 0x8, addend: 0x0, symName: __ZNKSt3__116reverse_iteratorINS0_IP4fracEEEptB8ue170006Ev, symObjAddr: 0x147D8, symBinAddr: 0x100018B88, symSize: 0x24 }
  - { offsetInCU: 0x1EBB6, offset: 0x1EBB6, size: 0x8, addend: 0x0, symName: __ZNKSt3__116reverse_iteratorINS0_IP4fracEEEdeB8ue170006Ev, symObjAddr: 0x147FC, symBinAddr: 0x100018BAC, symSize: 0x34 }
  - { offsetInCU: 0x1EBE9, offset: 0x1EBE9, size: 0x8, addend: 0x0, symName: __ZNSt3__116reverse_iteratorIP4fracEmmB8ue170006Ev, symObjAddr: 0x14830, symBinAddr: 0x100018BE0, symSize: 0x20 }
  - { offsetInCU: 0x1EC0E, offset: 0x1EC0E, size: 0x8, addend: 0x0, symName: __ZNSt3__116reverse_iteratorINS0_IP4fracEEEC2B8ue170006ES3_, symObjAddr: 0x14850, symBinAddr: 0x100018C00, symSize: 0x2C }
  - { offsetInCU: 0x1EC45, offset: 0x1EC45, size: 0x8, addend: 0x0, symName: __ZNSt3__114__split_bufferI4fracRNS_9allocatorIS1_EEED2Ev, symObjAddr: 0x1487C, symBinAddr: 0x100018C2C, symSize: 0x80 }
  - { offsetInCU: 0x1EC70, offset: 0x1EC70, size: 0x8, addend: 0x0, symName: __ZNSt3__114__split_bufferI4fracRNS_9allocatorIS1_EEE5clearB8ue170006Ev, symObjAddr: 0x148FC, symBinAddr: 0x100018CAC, symSize: 0x28 }
  - { offsetInCU: 0x1EC95, offset: 0x1EC95, size: 0x8, addend: 0x0, symName: __ZNKSt3__114__split_bufferI4fracRNS_9allocatorIS1_EEE8capacityB8ue170006Ev, symObjAddr: 0x14924, symBinAddr: 0x100018CD4, symSize: 0x40 }
  - { offsetInCU: 0x1ECBA, offset: 0x1ECBA, size: 0x8, addend: 0x0, symName: __ZNSt3__114__split_bufferI4fracRNS_9allocatorIS1_EEE17__destruct_at_endB8ue170006EPS1_, symObjAddr: 0x14964, symBinAddr: 0x100018D14, symSize: 0x2C }
  - { offsetInCU: 0x1ECEC, offset: 0x1ECEC, size: 0x8, addend: 0x0, symName: __ZNSt3__114__split_bufferI4fracRNS_9allocatorIS1_EEE17__destruct_at_endB8ue170006EPS1_NS_17integral_constantIbLb0EEE, symObjAddr: 0x14990, symBinAddr: 0x100018D40, symSize: 0x94 }
  - { offsetInCU: 0x1ED2B, offset: 0x1ED2B, size: 0x8, addend: 0x0, symName: __ZNKSt3__114__split_bufferI4fracRNS_9allocatorIS1_EEE9__end_capB8ue170006Ev, symObjAddr: 0x14A24, symBinAddr: 0x100018DD4, symSize: 0x28 }
  - { offsetInCU: 0x1ED50, offset: 0x1ED50, size: 0x8, addend: 0x0, symName: __ZNKSt3__117__compressed_pairIP4fracRNS_9allocatorIS1_EEE5firstB8ue170006Ev, symObjAddr: 0x14A4C, symBinAddr: 0x100018DFC, symSize: 0x24 }
  - { offsetInCU: 0x1ED75, offset: 0x1ED75, size: 0x8, addend: 0x0, symName: __ZNSt3__16vectorI4fracNS_9allocatorIS1_EEEC1Em, symObjAddr: 0x14A70, symBinAddr: 0x100018E20, symSize: 0x34 }
  - { offsetInCU: 0x1EDAF, offset: 0x1EDAF, size: 0x8, addend: 0x0, symName: __ZNSt3__16vectorINS0_I4fracNS_9allocatorIS1_EEEENS2_IS4_EEEC1EmRKS4_, symObjAddr: 0x14AA4, symBinAddr: 0x100018E54, symSize: 0x3C }
  - { offsetInCU: 0x1EDF8, offset: 0x1EDF8, size: 0x8, addend: 0x0, symName: __ZN6matrixI4fracE3colEi, symObjAddr: 0x14AE0, symBinAddr: 0x100018E90, symSize: 0x100 }
  - { offsetInCU: 0x1EE59, offset: 0x1EE59, size: 0x8, addend: 0x0, symName: __ZNSt3__16vectorI4fracNS_9allocatorIS1_EEEaSB8ue170006EOS4_, symObjAddr: 0x14BE0, symBinAddr: 0x100018F90, symSize: 0x34 }
  - { offsetInCU: 0x1EE8E, offset: 0x1EE8E, size: 0x8, addend: 0x0, symName: __ZmiI4fracENSt3__16vectorIT_NS1_9allocatorIS3_EEEERKS6_S8_, symObjAddr: 0x14C14, symBinAddr: 0x100018FC4, symSize: 0x164 }
  - { offsetInCU: 0x1EF12, offset: 0x1EF12, size: 0x8, addend: 0x0, symName: __ZmlI4fracENSt3__16vectorIT_NS1_9allocatorIS3_EEEES3_RKS6_, symObjAddr: 0x14D78, symBinAddr: 0x100019128, symSize: 0x130 }
  - { offsetInCU: 0x1EF97, offset: 0x1EF97, size: 0x8, addend: 0x0, symName: __ZNSt3__16vectorI4fracNS_9allocatorIS1_EEEC2Em, symObjAddr: 0x14EA8, symBinAddr: 0x100019258, symSize: 0xDC }
  - { offsetInCU: 0x1EFE5, offset: 0x1EFE5, size: 0x8, addend: 0x0, symName: __ZNSt3__16vectorI4fracNS_9allocatorIS1_EEE18__construct_at_endEm, symObjAddr: 0x14F84, symBinAddr: 0x100019334, symSize: 0xD0 }
  - { offsetInCU: 0x1F057, offset: 0x1F057, size: 0x8, addend: 0x0, symName: __ZNSt3__116allocator_traitsINS_9allocatorI4fracEEE9constructB8ue170006IS2_JEvEEvRS3_PT_DpOT0_, symObjAddr: 0x15054, symBinAddr: 0x100019404, symSize: 0x2C }
  - { offsetInCU: 0x1F099, offset: 0x1F099, size: 0x8, addend: 0x0, symName: __ZNSt3__19allocatorI4fracE9constructB8ue170006IS1_JEEEvPT_DpOT0_, symObjAddr: 0x15080, symBinAddr: 0x100019430, symSize: 0x28 }
  - { offsetInCU: 0x1F0DA, offset: 0x1F0DA, size: 0x8, addend: 0x0, symName: __ZNSt3__16vectorINS0_I4fracNS_9allocatorIS1_EEEENS2_IS4_EEEC2EmRKS4_, symObjAddr: 0x150A8, symBinAddr: 0x100019458, symSize: 0xE4 }
  - { offsetInCU: 0x1F138, offset: 0x1F138, size: 0x8, addend: 0x0, symName: __ZNSt3__128__exception_guard_exceptionsINS_6vectorINS1_I4fracNS_9allocatorIS2_EEEENS3_IS5_EEE16__destroy_vectorEE10__completeB8ue170006Ev, symObjAddr: 0x151CC, symBinAddr: 0x10001957C, symSize: 0x1C }
  - { offsetInCU: 0x1F15D, offset: 0x1F15D, size: 0x8, addend: 0x0, symName: __ZNSt3__128__exception_guard_exceptionsINS_6vectorINS1_I4fracNS_9allocatorIS2_EEEENS3_IS5_EEE16__destroy_vectorEED1B8ue170006Ev, symObjAddr: 0x151E8, symBinAddr: 0x100019598, symSize: 0x2C }
  - { offsetInCU: 0x1F186, offset: 0x1F186, size: 0x8, addend: 0x0, symName: __ZNSt3__128__exception_guard_exceptionsINS_6vectorINS1_I4fracNS_9allocatorIS2_EEEENS3_IS5_EEE16__destroy_vectorEEC1B8ue170006ES8_, symObjAddr: 0x15214, symBinAddr: 0x1000195C4, symSize: 0x34 }
  - { offsetInCU: 0x1F1BD, offset: 0x1F1BD, size: 0x8, addend: 0x0, symName: __ZNSt3__128__exception_guard_exceptionsINS_6vectorINS1_I4fracNS_9allocatorIS2_EEEENS3_IS5_EEE16__destroy_vectorEEC2B8ue170006ES8_, symObjAddr: 0x15248, symBinAddr: 0x1000195F8, symSize: 0x24 }
  - { offsetInCU: 0x1F1F4, offset: 0x1F1F4, size: 0x8, addend: 0x0, symName: __ZNSt3__128__exception_guard_exceptionsINS_6vectorINS1_I4fracNS_9allocatorIS2_EEEENS3_IS5_EEE16__destroy_vectorEED2B8ue170006Ev, symObjAddr: 0x1526C, symBinAddr: 0x10001961C, symSize: 0x48 }
  - { offsetInCU: 0x1F21D, offset: 0x1F21D, size: 0x8, addend: 0x0, symName: __ZNSt3__16vectorI4fracNS_9allocatorIS1_EEEC1EmRKS1_, symObjAddr: 0x152B4, symBinAddr: 0x100019664, symSize: 0x3C }
  - { offsetInCU: 0x1F266, offset: 0x1F266, size: 0x8, addend: 0x0, symName: __ZNSt3__16vectorI4fracNS_9allocatorIS1_EEEC2EmRKS1_, symObjAddr: 0x152F0, symBinAddr: 0x1000196A0, symSize: 0xE4 }
  - { offsetInCU: 0x1F2C3, offset: 0x1F2C3, size: 0x8, addend: 0x0, symName: __ZNSt3__16vectorI4fracNS_9allocatorIS1_EEE13__move_assignERS4_NS_17integral_constantIbLb1EEE, symObjAddr: 0x153D4, symBinAddr: 0x100019784, symSize: 0x94 }
  - { offsetInCU: 0x1F305, offset: 0x1F305, size: 0x8, addend: 0x0, symName: __ZNSt3__16vectorI4fracNS_9allocatorIS1_EEE19__move_assign_allocB8ue170006ERS4_, symObjAddr: 0x15468, symBinAddr: 0x100019818, symSize: 0x2C }
  - { offsetInCU: 0x1F339, offset: 0x1F339, size: 0x8, addend: 0x0, symName: __ZNSt3__16vectorI4fracNS_9allocatorIS1_EEE19__move_assign_allocB8ue170006ERS4_NS_17integral_constantIbLb1EEE, symObjAddr: 0x15494, symBinAddr: 0x100019844, symSize: 0x38 }
...
